
F:/START_OS/start/build/source/kernel/kernel.elf:     file format elf32-i386
F:/START_OS/start/build/source/kernel/kernel.elf
architecture: i386, flags 0x00000112:
EXEC_P, HAS_SYMS, D_PAGED
start address 0x00010000

Program Header:
    LOAD off    0x00001000 vaddr 0x00010000 paddr 0x00010000 align 2**12
         filesz 0x00003b13 memsz 0x00003b13 flags r-x
    LOAD off    0x00005000 vaddr 0x00014000 paddr 0x00014000 align 2**12
         filesz 0x00000054 memsz 0x0000d204 flags rw-
    LOAD off    0x00006000 vaddr 0x80000000 paddr 0x00021204 align 2**12
         filesz 0x00000038 memsz 0x00000038 flags rwx

Sections:
Idx Name          Size      VMA       LMA       File off  Algn
  0 .text         0000332b  00010000  00010000  00001000  2**0
                  CONTENTS, ALLOC, LOAD, READONLY, CODE
  1 .rodata       000007e7  0001332c  0001332c  0000432c  2**2
                  CONTENTS, ALLOC, LOAD, READONLY, DATA
  2 .data         00000054  00014000  00014000  00005000  2**5
                  CONTENTS, ALLOC, LOAD, DATA
  3 .bss          0000c204  00015000  00015000  00005054  2**12
                  ALLOC
  4 .first_task   00000038  80000000  00021204  00006000  2**0
                  CONTENTS, ALLOC, LOAD, CODE
  5 .debug_line   000017c7  00000000  00000000  00006038  2**0
                  CONTENTS, READONLY, DEBUGGING
  6 .debug_info   0000494f  00000000  00000000  000077ff  2**0
                  CONTENTS, READONLY, DEBUGGING
  7 .debug_abbrev 00001281  00000000  00000000  0000c14e  2**0
                  CONTENTS, READONLY, DEBUGGING
  8 .debug_aranges 000001e0  00000000  00000000  0000d3d0  2**3
                  CONTENTS, READONLY, DEBUGGING
  9 .debug_ranges 00000060  00000000  00000000  0000d5b0  2**0
                  CONTENTS, READONLY, DEBUGGING
 10 .debug_str    000011ac  00000000  00000000  0000d610  2**0
                  CONTENTS, READONLY, DEBUGGING
 11 .comment      00000011  00000000  00000000  0000e7bc  2**0
                  CONTENTS, READONLY
 12 .debug_frame  00001434  00000000  00000000  0000e7d0  2**2
                  CONTENTS, READONLY, DEBUGGING
SYMBOL TABLE:
00010000 l    d  .text	00000000 .text
0001332c l    d  .rodata	00000000 .rodata
00014000 l    d  .data	00000000 .data
00015000 l    d  .bss	00000000 .bss
80000000 l    d  .first_task	00000000 .first_task
00000000 l    d  .debug_line	00000000 .debug_line
00000000 l    d  .debug_info	00000000 .debug_info
00000000 l    d  .debug_abbrev	00000000 .debug_abbrev
00000000 l    d  .debug_aranges	00000000 .debug_aranges
00000000 l    d  .debug_ranges	00000000 .debug_ranges
00000000 l    d  .debug_str	00000000 .debug_str
00000000 l    d  .comment	00000000 .comment
00000000 l    d  .debug_frame	00000000 .debug_frame
00000000 l    df *ABS*	00000000 CMakeFiles/kernel.dir/init/start.S.obj
00010010 l       .text	00000000 gdt_reload
00000000 l    df *ABS*	00000000 memory.c
000102d7 l     F .text	00000017 up2
000102ee l     F .text	0000000d down2
000102fb l     F .text	0000000c write_cr3
00010307 l     F .text	00000014 pde_index
0001031b l     F .text	00000027 pde_paddr
00010342 l     F .text	00000010 pte_index
00010352 l     F .text	00000027 pte_paddr
00010379 l     F .text	0000000f get_pte_perm
00010388 l     F .text	00000011 mmu_set_page_dir
00015000 l     O .bss	00000028 paddr_alloc
00016000 l     O .bss	00001000 kernel_page_dir
00010399 l     F .text	00000010 current_page_dir
000103a9 l     F .text	00000058 addr_alloc_init
00010401 l     F .text	00000067 addr_alloc_page
00010468 l     F .text	00000062 addr_free_page
000104ca l     F .text	00000066 show_mem_info
00010530 l     F .text	0000003c total_mem_size
00013484 l     O .rodata	00000012 __func__.2352
00014000 l     O .data	00000050 kernel_map.2364
00013498 l     O .rodata	00000013 __func__.2393
000134ac l     O .rodata	00000011 __func__.2471
000134c0 l     O .rodata	0000000c __func__.2478
000134cc l     O .rodata	00000009 __func__.2486
00000000 l    df *ABS*	00000000 task.c
00010ecb l     F .text	0000000c write_cr3
00010ed7 l     F .text	00000007 hlt
00010ede l     F .text	0000000c write_tr
00010eea l     F .text	0000001b list_node_init
00010f05 l     F .text	0000000b list_node_next
00010f10 l     F .text	0000000b list_count
00010f1b l     F .text	0000000a list_first
00010f25 l     F .text	00000011 mmu_set_page_dir
00017000 l     O .bss	000001c0 task_manager
000171c0 l     O .bss	00001000 idle_task_stack
000181c0 l     O .bss	00006400 task_table
00010f36 l     F .text	000001a4 tss_init
000110da l     F .text	00000045 task_next_run
00013558 l     O .rodata	0000000a __func__.2344
00013564 l     O .rodata	00000010 __func__.2362
00011360 l     F .text	0000000a idle_task_entry
00000000 l    df *ABS*	00000000 cpu.c
00011719 l     F .text	00000028 lgdt
00011741 l     F .text	0000001a far_jump
0001e5c0 l     O .bss	00000800 gdt_table
0001edc0 l     O .bss	00000014 mutex
00000000 l    df *ABS*	00000000 irq.c
00011975 l     F .text	0000001d inb
00011992 l     F .text	0000001f outb
000119b1 l     F .text	00000007 cli
000119b8 l     F .text	00000007 sti
000119bf l     F .text	00000011 read_cr2
000119d0 l     F .text	00000028 lidt
000119f8 l     F .text	00000007 hlt
000119ff l     F .text	00000010 read_eflags
00011a0f l     F .text	0000000b write_eflags
0001ede0 l     O .bss	00000400 idt_table
00011a1a l     F .text	000000ff dump_core_regs
00011b19 l     F .text	0000004e do_default_handler
00011f24 l     F .text	00000093 init_pic
00000000 l    df *ABS*	00000000 time.c
0001232d l     F .text	0000001f outb
0001f1e0 l     O .bss	00000004 sys_tick
00012374 l     F .text	00000060 init_pit
00000000 l    df *ABS*	00000000 init.c
00013aa4 l     O .rodata	00000013 __func__.2246
00000000 l    df *ABS*	00000000 mutex.c
000124b8 l     F .text	0000000b list_count
00000000 l    df *ABS*	00000000 sem.c
00012647 l     F .text	0000000b list_count
00000000 l    df *ABS*	00000000 bitmap.c
00000000 l    df *ABS*	00000000 klib.c
000129d5 l     F .text	00000007 hlt
00014050 l     O .data	00000004 num2ch.1951
00000000 l    df *ABS*	00000000 list.c
00012f91 l     F .text	00000013 list_is_empty
00000000 l    df *ABS*	00000000 log.c
00013189 l     F .text	0000001d inb
000131a6 l     F .text	0000001f outb
00000000 l    df *ABS*	00000000 first_task.c
000128cd g     F .text	0000003a bitmap_get_bit
00012bbf g     F .text	0000004f kernel_memcpy
000114a0 g     F .text	0000000a task_current
000122ce g     F .text	0000000b irq_enable_global
00013028 g     F .text	00000064 list_insert_last
00010dbf g     F .text	0000010c sys_sbrk
000116b5 g     F .text	00000064 sys_msleep
00011c9b g     F .text	0000001c do_handler_segment_not_present
00011441 g     F .text	00000034 task_set_ready
00012907 g     F .text	0000001b bitmap_is_set
00012c0e g     F .text	00000041 kernel_memset
00010267 g       .text	00000000 exception_handler_virtual_exception
000129dc g     F .text	0000002d strings_count
0001191e g     F .text	0000001e cpu_init
000131c5 g     F .text	00000088 log_init
00012480 g     F .text	00000038 init_main
0001020c g       .text	00000000 exception_handler_alignment_check
0001193c g     F .text	00000039 gdt_free_sel
00012a4f g     F .text	00000047 kernel_strcpy
00014000 g       .data	00000000 s_data
000121b1 g     F .text	0000008b irq_enable
00010028 g       .text	00000000 exception_handler_unknown
000100a4 g       .text	00000000 exception_handler_breakpoint
00011bf3 g     F .text	0000001c do_handler_overflow
00011e98 g     F .text	0000001c do_handler_alignment_check
0001061c g     F .text	0000008c memory_create_map
000101b3 g       .text	00000000 exception_handler_general_protection
00011cd3 g     F .text	000000c5 do_handler_general_protection
00011f08 g     F .text	0000001c do_handler_control_exception
00012767 g     F .text	00000029 sem_count
80000010 g     F .first_task	00000028 first_task_main
00011b83 g     F .text	0000001c do_handler_divider
000127f9 g     F .text	000000d4 bitmap_set_bit
00011c63 g     F .text	0000001c do_handler_double_fault
00011d98 g     F .text	000000e4 do_handler_page_fault
0001013f g       .text	00000000 exception_handler_double_fault
00012302 g     F .text	0000002b pic_send_eoi
00011356 g     F .text	0000000a task_first_task
00010000 g       .text	00000000 s_text
0001076b g     F .text	00000085 memory_create_uvm
00012675 g     F .text	0000006e sem_wait
00010c06 g     F .text	00000022 memory_alloc_page_for
0001234c g     F .text	00000028 do_handler_timer
00010196 g       .text	00000000 exception_handler_stack_segment_fault
80000000 g       .first_task	00000000 first_task_entry
00011eec g     F .text	0000001c do_handler_virtual_exception
000100c3 g       .text	00000000 exception_handler_overflow
000102c2 g       .text	00000000 simple_switch
0001f1f0 g     O .bss	00002000 stack
00010c42 g     F .text	00000099 memory_free_page
00010286 g       .text	00000000 exception_handler_control_exception
00021204 g       *ABS*	00000000 s_first_task
00010b1d g     F .text	000000e9 memory_alloc_for_page_dir
000100e2 g       .text	00000000 exception_handler_bound_range
000126e3 g     F .text	00000084 sem_notify
00010a9a g     F .text	00000083 memory_copy_uvm_data
00011c2b g     F .text	0000001c do_handler_invalid_opcode
0001015c g       .text	00000000 exception_handler_invalid_tss
00011e7c g     F .text	0000001c do_handler_fpu_error
0001123a g     F .text	000000ef task_first_init
00011eb4 g     F .text	0000001c do_handler_machine_check
00011b9f g     F .text	0000001c do_handler_Debug
00012fc9 g     F .text	0000005f list_insert_first
000211f0 g     O .bss	00000014 mutex
00011693 g     F .text	00000022 task_set_wakeup
00011bbb g     F .text	0000001c do_handler_NMI
00010047 g       .text	00000000 exception_handler_divider
00012a96 g     F .text	00000070 kernel_strncpy
000122c3 g     F .text	0000000b irq_disable_global
00011505 g     F .text	00000061 sys_sched_yield
0002123c g       *ABS*	00000000 mem_free_start
000123ec g     F .text	00000030 kernel_init
00012652 g     F .text	00000023 sem_init
00010000 g       .text	00000000 _start
00012e10 g     F .text	0000014b kernel_vsprintf
00012a09 g     F .text	00000046 get_file_name
00010120 g       .text	00000000 exception_handler_device_unavailable
00010101 g       .text	00000000 exception_handler_invalid_opcode
00021204 g       .bss	00000000 e_data
000124f1 g     F .text	00000097 mutex_lock
00010229 g       .text	00000000 exception_handler_machine_check
00011c7f g     F .text	0000001c do_handler_invalid_tss
00000000 g       *ABS*	00000000 kernel_base
0002123c g       *ABS*	00000000 e_first_task
00011657 g     F .text	0000003c task_set_sleep
00012f5b g     F .text	00000036 panic
000102a3 g       .text	00000000 exception_handler_timer
00012177 g     F .text	0000003a irq_install
00011825 g     F .text	0000006d init_gdt
000122d9 g     F .text	00000018 irq_enter_protection
000124c3 g     F .text	0000002e mutex_init
0001223c g     F .text	00000087 irq_disable
00010248 g       .text	00000000 exception_handler_smd_exception
000107f0 g     F .text	0000010f memory_destroy_uvm
00012790 g     F .text	00000016 bitmap_byte_count
00011c47 g     F .text	0000001c do_handler_device_unavailable
000114aa g     F .text	0000005b task_dispatch
000108ff g     F .text	00000155 memory_copy_uvm
0001241c g     F .text	00000064 move_to_first_task
0001190b g     F .text	00000013 switch_to_tss
00012c4f g     F .text	0000005e kernel_memcmp
000106a8 g     F .text	000000c3 create_kernel_table
00012fa4 g     F .text	00000025 list_init
00011ed0 g     F .text	0000001c do_handler_smd_exception
000101d0 g       .text	00000000 exception_handler_page_fault
00011475 g     F .text	0000002b task_set_block
00011b67 g     F .text	0000001c do_handler_unknown
00010c28 g     F .text	0000001a memory_alloc_page
000101ed g       .text	00000000 exception_handler_fpu_error
00011218 g     F .text	00000022 task_switch_from_to
00011fb7 g     F .text	000001c0 irq_init
00012588 g     F .text	000000bf mutex_unlock
000122f1 g     F .text	00000011 irq_leave_protection
00012b06 g     F .text	0000003b kernel_strlen
0001175b g     F .text	00000083 segment_desc_set
00011c0f g     F .text	0000001c do_handler_bound_range
0001308c g     F .text	00000078 list_remove_first
00013b13 g       .rodata	00000000 e_text
00012b41 g     F .text	0000007e kernel_strncmp
000127a6 g     F .text	00000053 bitmap_init
00010179 g       .text	00000000 exception_handler_segment_not_present
00010085 g       .text	00000000 exception_handler_NMI
00012922 g     F .text	000000b3 bitmap_alloc_nbits
0001136a g     F .text	000000d7 task_manager_init
00011329 g     F .text	0000002d task_start
00010066 g       .text	00000000 exception_handler_Debug
00011566 g     F .text	000000f1 task_time_tick
00010cdb g     F .text	000000e4 memory_init
00010a54 g     F .text	00000046 memory_get_paddr
00011cb7 g     F .text	0000001c do_handler_stack_segment_fault
00011bd7 g     F .text	0000001c do_handler_breakpoint
0001324d g     F .text	000000de log_printf
0001111f g     F .text	000000f9 task_init
00012dec g     F .text	00000024 kernel_sprintf
00011892 g     F .text	00000079 gdt_alloc_desc
00012cad g     F .text	0000013f kernel_itoa
00013104 g     F .text	00000085 list_remove
000117de g     F .text	00000047 gate_desc_set
0001056c g     F .text	000000b0 find_pte
000123d4 g     F .text	00000018 time_init



Disassembly of section .text:

00010000 <_start>:
    # 第二种方法
    # mov 4(%esp), %eax
    # push %eax

    # 第三种方法
    push 4(%esp)
   10000:	ff 74 24 04          	pushl  0x4(%esp)

    # kernel_init(boot_info)
    call kernel_init
   10004:	e8 e3 23 00 00       	call   123ec <kernel_init>
    jmp $KERNEL_SELECTOR_CS, $gdt_reload
   10009:	ea 10 00 01 00 08 00 	ljmp   $0x8,$0x10010

00010010 <gdt_reload>:
gdt_reload:
    mov $KERNEL_SELECTOR_DS, %ax
   10010:	66 b8 10 00          	mov    $0x10,%ax
	mov %ax, %ds
   10014:	8e d8                	mov    %eax,%ds
	mov %ax, %ss
   10016:	8e d0                	mov    %eax,%ss
	mov %ax, %es
   10018:	8e c0                	mov    %eax,%es
	mov %ax, %fs
   1001a:	8e e0                	mov    %eax,%fs
	mov %ax, %gs
   1001c:	8e e8                	mov    %eax,%gs

    mov $(stack + KERNEL_STACK_SIZE), %esp
   1001e:	bc f0 11 02 00       	mov    $0x211f0,%esp
    jmp init_main
   10023:	e9 58 24 00 00       	jmp    12480 <init_main>

00010028 <exception_handler_unknown>:

    add $(2*4), %esp
    iret
.endm

exception_handler unknown, -1, 0
   10028:	6a 00                	push   $0x0
   1002a:	6a ff                	push   $0xffffffff
   1002c:	60                   	pusha  
   1002d:	1e                   	push   %ds
   1002e:	06                   	push   %es
   1002f:	0f a0                	push   %fs
   10031:	0f a8                	push   %gs
   10033:	54                   	push   %esp
   10034:	e8 2e 1b 00 00       	call   11b67 <do_handler_unknown>
   10039:	83 c4 04             	add    $0x4,%esp
   1003c:	0f a9                	pop    %gs
   1003e:	0f a1                	pop    %fs
   10040:	07                   	pop    %es
   10041:	1f                   	pop    %ds
   10042:	61                   	popa   
   10043:	83 c4 08             	add    $0x8,%esp
   10046:	cf                   	iret   

00010047 <exception_handler_divider>:
exception_handler divider, 0, 0
   10047:	6a 00                	push   $0x0
   10049:	6a 00                	push   $0x0
   1004b:	60                   	pusha  
   1004c:	1e                   	push   %ds
   1004d:	06                   	push   %es
   1004e:	0f a0                	push   %fs
   10050:	0f a8                	push   %gs
   10052:	54                   	push   %esp
   10053:	e8 2b 1b 00 00       	call   11b83 <do_handler_divider>
   10058:	83 c4 04             	add    $0x4,%esp
   1005b:	0f a9                	pop    %gs
   1005d:	0f a1                	pop    %fs
   1005f:	07                   	pop    %es
   10060:	1f                   	pop    %ds
   10061:	61                   	popa   
   10062:	83 c4 08             	add    $0x8,%esp
   10065:	cf                   	iret   

00010066 <exception_handler_Debug>:
exception_handler Debug, 1, 0
   10066:	6a 00                	push   $0x0
   10068:	6a 01                	push   $0x1
   1006a:	60                   	pusha  
   1006b:	1e                   	push   %ds
   1006c:	06                   	push   %es
   1006d:	0f a0                	push   %fs
   1006f:	0f a8                	push   %gs
   10071:	54                   	push   %esp
   10072:	e8 28 1b 00 00       	call   11b9f <do_handler_Debug>
   10077:	83 c4 04             	add    $0x4,%esp
   1007a:	0f a9                	pop    %gs
   1007c:	0f a1                	pop    %fs
   1007e:	07                   	pop    %es
   1007f:	1f                   	pop    %ds
   10080:	61                   	popa   
   10081:	83 c4 08             	add    $0x8,%esp
   10084:	cf                   	iret   

00010085 <exception_handler_NMI>:
exception_handler NMI, 2, 0
   10085:	6a 00                	push   $0x0
   10087:	6a 02                	push   $0x2
   10089:	60                   	pusha  
   1008a:	1e                   	push   %ds
   1008b:	06                   	push   %es
   1008c:	0f a0                	push   %fs
   1008e:	0f a8                	push   %gs
   10090:	54                   	push   %esp
   10091:	e8 25 1b 00 00       	call   11bbb <do_handler_NMI>
   10096:	83 c4 04             	add    $0x4,%esp
   10099:	0f a9                	pop    %gs
   1009b:	0f a1                	pop    %fs
   1009d:	07                   	pop    %es
   1009e:	1f                   	pop    %ds
   1009f:	61                   	popa   
   100a0:	83 c4 08             	add    $0x8,%esp
   100a3:	cf                   	iret   

000100a4 <exception_handler_breakpoint>:
exception_handler breakpoint, 3, 0
   100a4:	6a 00                	push   $0x0
   100a6:	6a 03                	push   $0x3
   100a8:	60                   	pusha  
   100a9:	1e                   	push   %ds
   100aa:	06                   	push   %es
   100ab:	0f a0                	push   %fs
   100ad:	0f a8                	push   %gs
   100af:	54                   	push   %esp
   100b0:	e8 22 1b 00 00       	call   11bd7 <do_handler_breakpoint>
   100b5:	83 c4 04             	add    $0x4,%esp
   100b8:	0f a9                	pop    %gs
   100ba:	0f a1                	pop    %fs
   100bc:	07                   	pop    %es
   100bd:	1f                   	pop    %ds
   100be:	61                   	popa   
   100bf:	83 c4 08             	add    $0x8,%esp
   100c2:	cf                   	iret   

000100c3 <exception_handler_overflow>:
exception_handler overflow, 4, 0
   100c3:	6a 00                	push   $0x0
   100c5:	6a 04                	push   $0x4
   100c7:	60                   	pusha  
   100c8:	1e                   	push   %ds
   100c9:	06                   	push   %es
   100ca:	0f a0                	push   %fs
   100cc:	0f a8                	push   %gs
   100ce:	54                   	push   %esp
   100cf:	e8 1f 1b 00 00       	call   11bf3 <do_handler_overflow>
   100d4:	83 c4 04             	add    $0x4,%esp
   100d7:	0f a9                	pop    %gs
   100d9:	0f a1                	pop    %fs
   100db:	07                   	pop    %es
   100dc:	1f                   	pop    %ds
   100dd:	61                   	popa   
   100de:	83 c4 08             	add    $0x8,%esp
   100e1:	cf                   	iret   

000100e2 <exception_handler_bound_range>:
exception_handler bound_range, 5, 0
   100e2:	6a 00                	push   $0x0
   100e4:	6a 05                	push   $0x5
   100e6:	60                   	pusha  
   100e7:	1e                   	push   %ds
   100e8:	06                   	push   %es
   100e9:	0f a0                	push   %fs
   100eb:	0f a8                	push   %gs
   100ed:	54                   	push   %esp
   100ee:	e8 1c 1b 00 00       	call   11c0f <do_handler_bound_range>
   100f3:	83 c4 04             	add    $0x4,%esp
   100f6:	0f a9                	pop    %gs
   100f8:	0f a1                	pop    %fs
   100fa:	07                   	pop    %es
   100fb:	1f                   	pop    %ds
   100fc:	61                   	popa   
   100fd:	83 c4 08             	add    $0x8,%esp
   10100:	cf                   	iret   

00010101 <exception_handler_invalid_opcode>:
exception_handler invalid_opcode, 6, 0
   10101:	6a 00                	push   $0x0
   10103:	6a 06                	push   $0x6
   10105:	60                   	pusha  
   10106:	1e                   	push   %ds
   10107:	06                   	push   %es
   10108:	0f a0                	push   %fs
   1010a:	0f a8                	push   %gs
   1010c:	54                   	push   %esp
   1010d:	e8 19 1b 00 00       	call   11c2b <do_handler_invalid_opcode>
   10112:	83 c4 04             	add    $0x4,%esp
   10115:	0f a9                	pop    %gs
   10117:	0f a1                	pop    %fs
   10119:	07                   	pop    %es
   1011a:	1f                   	pop    %ds
   1011b:	61                   	popa   
   1011c:	83 c4 08             	add    $0x8,%esp
   1011f:	cf                   	iret   

00010120 <exception_handler_device_unavailable>:
exception_handler device_unavailable, 7, 0
   10120:	6a 00                	push   $0x0
   10122:	6a 07                	push   $0x7
   10124:	60                   	pusha  
   10125:	1e                   	push   %ds
   10126:	06                   	push   %es
   10127:	0f a0                	push   %fs
   10129:	0f a8                	push   %gs
   1012b:	54                   	push   %esp
   1012c:	e8 16 1b 00 00       	call   11c47 <do_handler_device_unavailable>
   10131:	83 c4 04             	add    $0x4,%esp
   10134:	0f a9                	pop    %gs
   10136:	0f a1                	pop    %fs
   10138:	07                   	pop    %es
   10139:	1f                   	pop    %ds
   1013a:	61                   	popa   
   1013b:	83 c4 08             	add    $0x8,%esp
   1013e:	cf                   	iret   

0001013f <exception_handler_double_fault>:
exception_handler double_fault, 8, 1
   1013f:	6a 08                	push   $0x8
   10141:	60                   	pusha  
   10142:	1e                   	push   %ds
   10143:	06                   	push   %es
   10144:	0f a0                	push   %fs
   10146:	0f a8                	push   %gs
   10148:	54                   	push   %esp
   10149:	e8 15 1b 00 00       	call   11c63 <do_handler_double_fault>
   1014e:	83 c4 04             	add    $0x4,%esp
   10151:	0f a9                	pop    %gs
   10153:	0f a1                	pop    %fs
   10155:	07                   	pop    %es
   10156:	1f                   	pop    %ds
   10157:	61                   	popa   
   10158:	83 c4 08             	add    $0x8,%esp
   1015b:	cf                   	iret   

0001015c <exception_handler_invalid_tss>:
exception_handler invalid_tss, 10, 1
   1015c:	6a 0a                	push   $0xa
   1015e:	60                   	pusha  
   1015f:	1e                   	push   %ds
   10160:	06                   	push   %es
   10161:	0f a0                	push   %fs
   10163:	0f a8                	push   %gs
   10165:	54                   	push   %esp
   10166:	e8 14 1b 00 00       	call   11c7f <do_handler_invalid_tss>
   1016b:	83 c4 04             	add    $0x4,%esp
   1016e:	0f a9                	pop    %gs
   10170:	0f a1                	pop    %fs
   10172:	07                   	pop    %es
   10173:	1f                   	pop    %ds
   10174:	61                   	popa   
   10175:	83 c4 08             	add    $0x8,%esp
   10178:	cf                   	iret   

00010179 <exception_handler_segment_not_present>:
exception_handler segment_not_present, 11, 1
   10179:	6a 0b                	push   $0xb
   1017b:	60                   	pusha  
   1017c:	1e                   	push   %ds
   1017d:	06                   	push   %es
   1017e:	0f a0                	push   %fs
   10180:	0f a8                	push   %gs
   10182:	54                   	push   %esp
   10183:	e8 13 1b 00 00       	call   11c9b <do_handler_segment_not_present>
   10188:	83 c4 04             	add    $0x4,%esp
   1018b:	0f a9                	pop    %gs
   1018d:	0f a1                	pop    %fs
   1018f:	07                   	pop    %es
   10190:	1f                   	pop    %ds
   10191:	61                   	popa   
   10192:	83 c4 08             	add    $0x8,%esp
   10195:	cf                   	iret   

00010196 <exception_handler_stack_segment_fault>:
exception_handler stack_segment_fault, 12, 1
   10196:	6a 0c                	push   $0xc
   10198:	60                   	pusha  
   10199:	1e                   	push   %ds
   1019a:	06                   	push   %es
   1019b:	0f a0                	push   %fs
   1019d:	0f a8                	push   %gs
   1019f:	54                   	push   %esp
   101a0:	e8 12 1b 00 00       	call   11cb7 <do_handler_stack_segment_fault>
   101a5:	83 c4 04             	add    $0x4,%esp
   101a8:	0f a9                	pop    %gs
   101aa:	0f a1                	pop    %fs
   101ac:	07                   	pop    %es
   101ad:	1f                   	pop    %ds
   101ae:	61                   	popa   
   101af:	83 c4 08             	add    $0x8,%esp
   101b2:	cf                   	iret   

000101b3 <exception_handler_general_protection>:
exception_handler general_protection, 13, 1
   101b3:	6a 0d                	push   $0xd
   101b5:	60                   	pusha  
   101b6:	1e                   	push   %ds
   101b7:	06                   	push   %es
   101b8:	0f a0                	push   %fs
   101ba:	0f a8                	push   %gs
   101bc:	54                   	push   %esp
   101bd:	e8 11 1b 00 00       	call   11cd3 <do_handler_general_protection>
   101c2:	83 c4 04             	add    $0x4,%esp
   101c5:	0f a9                	pop    %gs
   101c7:	0f a1                	pop    %fs
   101c9:	07                   	pop    %es
   101ca:	1f                   	pop    %ds
   101cb:	61                   	popa   
   101cc:	83 c4 08             	add    $0x8,%esp
   101cf:	cf                   	iret   

000101d0 <exception_handler_page_fault>:
exception_handler page_fault, 14, 1
   101d0:	6a 0e                	push   $0xe
   101d2:	60                   	pusha  
   101d3:	1e                   	push   %ds
   101d4:	06                   	push   %es
   101d5:	0f a0                	push   %fs
   101d7:	0f a8                	push   %gs
   101d9:	54                   	push   %esp
   101da:	e8 b9 1b 00 00       	call   11d98 <do_handler_page_fault>
   101df:	83 c4 04             	add    $0x4,%esp
   101e2:	0f a9                	pop    %gs
   101e4:	0f a1                	pop    %fs
   101e6:	07                   	pop    %es
   101e7:	1f                   	pop    %ds
   101e8:	61                   	popa   
   101e9:	83 c4 08             	add    $0x8,%esp
   101ec:	cf                   	iret   

000101ed <exception_handler_fpu_error>:
exception_handler fpu_error, 16, 0
   101ed:	6a 00                	push   $0x0
   101ef:	6a 10                	push   $0x10
   101f1:	60                   	pusha  
   101f2:	1e                   	push   %ds
   101f3:	06                   	push   %es
   101f4:	0f a0                	push   %fs
   101f6:	0f a8                	push   %gs
   101f8:	54                   	push   %esp
   101f9:	e8 7e 1c 00 00       	call   11e7c <do_handler_fpu_error>
   101fe:	83 c4 04             	add    $0x4,%esp
   10201:	0f a9                	pop    %gs
   10203:	0f a1                	pop    %fs
   10205:	07                   	pop    %es
   10206:	1f                   	pop    %ds
   10207:	61                   	popa   
   10208:	83 c4 08             	add    $0x8,%esp
   1020b:	cf                   	iret   

0001020c <exception_handler_alignment_check>:
exception_handler alignment_check, 17, 1
   1020c:	6a 11                	push   $0x11
   1020e:	60                   	pusha  
   1020f:	1e                   	push   %ds
   10210:	06                   	push   %es
   10211:	0f a0                	push   %fs
   10213:	0f a8                	push   %gs
   10215:	54                   	push   %esp
   10216:	e8 7d 1c 00 00       	call   11e98 <do_handler_alignment_check>
   1021b:	83 c4 04             	add    $0x4,%esp
   1021e:	0f a9                	pop    %gs
   10220:	0f a1                	pop    %fs
   10222:	07                   	pop    %es
   10223:	1f                   	pop    %ds
   10224:	61                   	popa   
   10225:	83 c4 08             	add    $0x8,%esp
   10228:	cf                   	iret   

00010229 <exception_handler_machine_check>:
exception_handler machine_check, 18, 0
   10229:	6a 00                	push   $0x0
   1022b:	6a 12                	push   $0x12
   1022d:	60                   	pusha  
   1022e:	1e                   	push   %ds
   1022f:	06                   	push   %es
   10230:	0f a0                	push   %fs
   10232:	0f a8                	push   %gs
   10234:	54                   	push   %esp
   10235:	e8 7a 1c 00 00       	call   11eb4 <do_handler_machine_check>
   1023a:	83 c4 04             	add    $0x4,%esp
   1023d:	0f a9                	pop    %gs
   1023f:	0f a1                	pop    %fs
   10241:	07                   	pop    %es
   10242:	1f                   	pop    %ds
   10243:	61                   	popa   
   10244:	83 c4 08             	add    $0x8,%esp
   10247:	cf                   	iret   

00010248 <exception_handler_smd_exception>:
exception_handler smd_exception, 19, 0
   10248:	6a 00                	push   $0x0
   1024a:	6a 13                	push   $0x13
   1024c:	60                   	pusha  
   1024d:	1e                   	push   %ds
   1024e:	06                   	push   %es
   1024f:	0f a0                	push   %fs
   10251:	0f a8                	push   %gs
   10253:	54                   	push   %esp
   10254:	e8 77 1c 00 00       	call   11ed0 <do_handler_smd_exception>
   10259:	83 c4 04             	add    $0x4,%esp
   1025c:	0f a9                	pop    %gs
   1025e:	0f a1                	pop    %fs
   10260:	07                   	pop    %es
   10261:	1f                   	pop    %ds
   10262:	61                   	popa   
   10263:	83 c4 08             	add    $0x8,%esp
   10266:	cf                   	iret   

00010267 <exception_handler_virtual_exception>:
exception_handler virtual_exception, 20, 0
   10267:	6a 00                	push   $0x0
   10269:	6a 14                	push   $0x14
   1026b:	60                   	pusha  
   1026c:	1e                   	push   %ds
   1026d:	06                   	push   %es
   1026e:	0f a0                	push   %fs
   10270:	0f a8                	push   %gs
   10272:	54                   	push   %esp
   10273:	e8 74 1c 00 00       	call   11eec <do_handler_virtual_exception>
   10278:	83 c4 04             	add    $0x4,%esp
   1027b:	0f a9                	pop    %gs
   1027d:	0f a1                	pop    %fs
   1027f:	07                   	pop    %es
   10280:	1f                   	pop    %ds
   10281:	61                   	popa   
   10282:	83 c4 08             	add    $0x8,%esp
   10285:	cf                   	iret   

00010286 <exception_handler_control_exception>:
exception_handler control_exception, 21, 1
   10286:	6a 15                	push   $0x15
   10288:	60                   	pusha  
   10289:	1e                   	push   %ds
   1028a:	06                   	push   %es
   1028b:	0f a0                	push   %fs
   1028d:	0f a8                	push   %gs
   1028f:	54                   	push   %esp
   10290:	e8 73 1c 00 00       	call   11f08 <do_handler_control_exception>
   10295:	83 c4 04             	add    $0x4,%esp
   10298:	0f a9                	pop    %gs
   1029a:	0f a1                	pop    %fs
   1029c:	07                   	pop    %es
   1029d:	1f                   	pop    %ds
   1029e:	61                   	popa   
   1029f:	83 c4 08             	add    $0x8,%esp
   102a2:	cf                   	iret   

000102a3 <exception_handler_timer>:

exception_handler timer, 0x20, 0
   102a3:	6a 00                	push   $0x0
   102a5:	6a 20                	push   $0x20
   102a7:	60                   	pusha  
   102a8:	1e                   	push   %ds
   102a9:	06                   	push   %es
   102aa:	0f a0                	push   %fs
   102ac:	0f a8                	push   %gs
   102ae:	54                   	push   %esp
   102af:	e8 98 20 00 00       	call   1234c <do_handler_timer>
   102b4:	83 c4 04             	add    $0x4,%esp
   102b7:	0f a9                	pop    %gs
   102b9:	0f a1                	pop    %fs
   102bb:	07                   	pop    %es
   102bc:	1f                   	pop    %ds
   102bd:	61                   	popa   
   102be:	83 c4 08             	add    $0x8,%esp
   102c1:	cf                   	iret   

000102c2 <simple_switch>:

	.text
	.global simple_switch
simple_switch:
	mov 4(%esp), %eax   // 取from->stack
   102c2:	8b 44 24 04          	mov    0x4(%esp),%eax
	mov 8(%esp), %edx   // 取to->stack
   102c6:	8b 54 24 08          	mov    0x8(%esp),%edx

	// 保存前一任务的状态
	push %ebp
   102ca:	55                   	push   %ebp
	push %ebx
   102cb:	53                   	push   %ebx
	push %esi
   102cc:	56                   	push   %esi
	push %edi
   102cd:	57                   	push   %edi

	// 切换栈
	mov %esp, (%eax)    // from->stack = esp
   102ce:	89 20                	mov    %esp,(%eax)
  
  	mov %edx, %esp      // esp = to->stack
   102d0:	89 d4                	mov    %edx,%esp
	// 加载下一任务的栈
	pop %edi
   102d2:	5f                   	pop    %edi
	pop %esi
   102d3:	5e                   	pop    %esi
	pop %ebx
   102d4:	5b                   	pop    %ebx
	pop %ebp
   102d5:	5d                   	pop    %ebp
  	ret
   102d6:	c3                   	ret    

000102d7 <up2>:
#define KLIB_H

#include <stdarg.h>
#include "comm/types.h"
// 向上对齐到页边界
static inline uint32_t up2 (uint32_t size, uint32_t bound) {
   102d7:	55                   	push   %ebp
   102d8:	89 e5                	mov    %esp,%ebp
    return (size + bound - 1) & ~(bound - 1);
   102da:	8b 55 08             	mov    0x8(%ebp),%edx
   102dd:	8b 45 0c             	mov    0xc(%ebp),%eax
   102e0:	01 d0                	add    %edx,%eax
   102e2:	8d 50 ff             	lea    -0x1(%eax),%edx
   102e5:	8b 45 0c             	mov    0xc(%ebp),%eax
   102e8:	f7 d8                	neg    %eax
   102ea:	21 d0                	and    %edx,%eax
}
   102ec:	5d                   	pop    %ebp
   102ed:	c3                   	ret    

000102ee <down2>:

// 向下对齐到界边界
static inline uint32_t down2 (uint32_t size, uint32_t bound) {
   102ee:	55                   	push   %ebp
   102ef:	89 e5                	mov    %esp,%ebp
    return size & ~(bound - 1);
   102f1:	8b 45 0c             	mov    0xc(%ebp),%eax
   102f4:	f7 d8                	neg    %eax
   102f6:	23 45 08             	and    0x8(%ebp),%eax
}
   102f9:	5d                   	pop    %ebp
   102fa:	c3                   	ret    

000102fb <write_cr3>:
	uint32_t cr2;
	__asm__ __volatile__("mov %%cr2, %[v]":[v]"=r"(cr2));
	return cr2;
}

static inline void write_cr3(uint32_t v) {
   102fb:	55                   	push   %ebp
   102fc:	89 e5                	mov    %esp,%ebp
    __asm__ __volatile__("mov %[v], %%cr3"::[v]"r"(v));
   102fe:	8b 45 08             	mov    0x8(%ebp),%eax
   10301:	0f 22 d8             	mov    %eax,%cr3
}
   10304:	90                   	nop
   10305:	5d                   	pop    %ebp
   10306:	c3                   	ret    

00010307 <pde_index>:
#pragma pack()

/**
 * @brief 返回vaddr在页目录中的索引
 */
static inline uint32_t pde_index (uint32_t vaddr) {
   10307:	55                   	push   %ebp
   10308:	89 e5                	mov    %esp,%ebp
   1030a:	83 ec 10             	sub    $0x10,%esp
    int index = (vaddr >> 22); // 只取高10位
   1030d:	8b 45 08             	mov    0x8(%ebp),%eax
   10310:	c1 e8 16             	shr    $0x16,%eax
   10313:	89 45 fc             	mov    %eax,-0x4(%ebp)
    return index;
   10316:	8b 45 fc             	mov    -0x4(%ebp),%eax
}
   10319:	c9                   	leave  
   1031a:	c3                   	ret    

0001031b <pde_paddr>:

/**
 * @brief 获取pde中地址
 */
static inline uint32_t pde_paddr (pde_t * pde) {
   1031b:	55                   	push   %ebp
   1031c:	89 e5                	mov    %esp,%ebp
    return pde->phy_pt_addr << 12;
   1031e:	8b 45 08             	mov    0x8(%ebp),%eax
   10321:	0f b6 50 01          	movzbl 0x1(%eax),%edx
   10325:	c0 ea 04             	shr    $0x4,%dl
   10328:	0f b6 d2             	movzbl %dl,%edx
   1032b:	0f b6 48 02          	movzbl 0x2(%eax),%ecx
   1032f:	c1 e1 04             	shl    $0x4,%ecx
   10332:	09 ca                	or     %ecx,%edx
   10334:	0f b6 40 03          	movzbl 0x3(%eax),%eax
   10338:	c1 e0 0c             	shl    $0xc,%eax
   1033b:	09 d0                	or     %edx,%eax
   1033d:	c1 e0 0c             	shl    $0xc,%eax
}
   10340:	5d                   	pop    %ebp
   10341:	c3                   	ret    

00010342 <pte_index>:

/**
 * @brief 返回vaddr在页表中的索引
 */
static inline int pte_index (uint32_t vaddr) {
   10342:	55                   	push   %ebp
   10343:	89 e5                	mov    %esp,%ebp
    return (vaddr >> 12) & 0x3FF;   // 取中间10位
   10345:	8b 45 08             	mov    0x8(%ebp),%eax
   10348:	c1 e8 0c             	shr    $0xc,%eax
   1034b:	25 ff 03 00 00       	and    $0x3ff,%eax
}
   10350:	5d                   	pop    %ebp
   10351:	c3                   	ret    

00010352 <pte_paddr>:

/**
 * @brief 获取pte中的物理地址
 */
static inline uint32_t pte_paddr (pte_t * pte) {
   10352:	55                   	push   %ebp
   10353:	89 e5                	mov    %esp,%ebp
    return pte->phy_page_addr << 12;
   10355:	8b 45 08             	mov    0x8(%ebp),%eax
   10358:	0f b6 50 01          	movzbl 0x1(%eax),%edx
   1035c:	c0 ea 04             	shr    $0x4,%dl
   1035f:	0f b6 d2             	movzbl %dl,%edx
   10362:	0f b6 48 02          	movzbl 0x2(%eax),%ecx
   10366:	c1 e1 04             	shl    $0x4,%ecx
   10369:	09 ca                	or     %ecx,%edx
   1036b:	0f b6 40 03          	movzbl 0x3(%eax),%eax
   1036f:	c1 e0 0c             	shl    $0xc,%eax
   10372:	09 d0                	or     %edx,%eax
   10374:	c1 e0 0c             	shl    $0xc,%eax
}
   10377:	5d                   	pop    %ebp
   10378:	c3                   	ret    

00010379 <get_pte_perm>:

/**
 * @brief 获取pte中的权限位
 */
static inline uint32_t get_pte_perm (pte_t * pte) {
   10379:	55                   	push   %ebp
   1037a:	89 e5                	mov    %esp,%ebp
    return (pte->v & 0x1FF);                   // 2023年2月19 同学发现有问题，改了下
   1037c:	8b 45 08             	mov    0x8(%ebp),%eax
   1037f:	8b 00                	mov    (%eax),%eax
   10381:	25 ff 01 00 00       	and    $0x1ff,%eax
}
   10386:	5d                   	pop    %ebp
   10387:	c3                   	ret    

00010388 <mmu_set_page_dir>:

/**
 * @brief 重新加载整个页表
 * @param vaddr 页表的虚拟地址
 */
static inline void mmu_set_page_dir (uint32_t paddr) {
   10388:	55                   	push   %ebp
   10389:	89 e5                	mov    %esp,%ebp
    // 将虚拟地址转换为物理地址
    write_cr3(paddr);
   1038b:	ff 75 08             	pushl  0x8(%ebp)
   1038e:	e8 68 ff ff ff       	call   102fb <write_cr3>
   10393:	83 c4 04             	add    $0x4,%esp
}
   10396:	90                   	nop
   10397:	c9                   	leave  
   10398:	c3                   	ret    

00010399 <current_page_dir>:
static pde_t kernel_page_dir[PDE_CNT] __attribute__((aligned(MEM_PAGE_SIZE))); // 内核页目录表

/**
 * @brief 获取当前页表地址
 */
static pde_t * current_page_dir (void) {
   10399:	55                   	push   %ebp
   1039a:	89 e5                	mov    %esp,%ebp
   1039c:	83 ec 08             	sub    $0x8,%esp
    return (pde_t *)task_current()->tss.cr3;
   1039f:	e8 fc 10 00 00       	call   114a0 <task_current>
   103a4:	8b 40 60             	mov    0x60(%eax),%eax
}
   103a7:	c9                   	leave  
   103a8:	c3                   	ret    

000103a9 <addr_alloc_init>:
/**
 * @brief 初始化地址分配结构
 * 以下不检查start和size的页边界，由上层调用者检查
 */
static void addr_alloc_init (addr_alloc_t * alloc, uint8_t * bits,
                    uint32_t start, uint32_t size, uint32_t page_size) {
   103a9:	55                   	push   %ebp
   103aa:	89 e5                	mov    %esp,%ebp
   103ac:	83 ec 08             	sub    $0x8,%esp
    mutex_init(&alloc->mutex);
   103af:	8b 45 08             	mov    0x8(%ebp),%eax
   103b2:	83 ec 0c             	sub    $0xc,%esp
   103b5:	50                   	push   %eax
   103b6:	e8 08 21 00 00       	call   124c3 <mutex_init>
   103bb:	83 c4 10             	add    $0x10,%esp
    alloc->start = start;
   103be:	8b 45 08             	mov    0x8(%ebp),%eax
   103c1:	8b 55 10             	mov    0x10(%ebp),%edx
   103c4:	89 50 20             	mov    %edx,0x20(%eax)
    alloc->size = size;
   103c7:	8b 45 08             	mov    0x8(%ebp),%eax
   103ca:	8b 55 14             	mov    0x14(%ebp),%edx
   103cd:	89 50 24             	mov    %edx,0x24(%eax)
    alloc->page_size = page_size;
   103d0:	8b 45 08             	mov    0x8(%ebp),%eax
   103d3:	8b 55 18             	mov    0x18(%ebp),%edx
   103d6:	89 50 1c             	mov    %edx,0x1c(%eax)
    bitmap_init(&alloc->bitmap, bits, alloc->size / page_size, 0);
   103d9:	8b 45 08             	mov    0x8(%ebp),%eax
   103dc:	8b 40 24             	mov    0x24(%eax),%eax
   103df:	ba 00 00 00 00       	mov    $0x0,%edx
   103e4:	f7 75 18             	divl   0x18(%ebp)
   103e7:	89 c2                	mov    %eax,%edx
   103e9:	8b 45 08             	mov    0x8(%ebp),%eax
   103ec:	83 c0 14             	add    $0x14,%eax
   103ef:	6a 00                	push   $0x0
   103f1:	52                   	push   %edx
   103f2:	ff 75 0c             	pushl  0xc(%ebp)
   103f5:	50                   	push   %eax
   103f6:	e8 ab 23 00 00       	call   127a6 <bitmap_init>
   103fb:	83 c4 10             	add    $0x10,%esp
}
   103fe:	90                   	nop
   103ff:	c9                   	leave  
   10400:	c3                   	ret    

00010401 <addr_alloc_page>:

/**
 * @brief 分配多页内存
 */
static uint32_t addr_alloc_page (addr_alloc_t * alloc, int page_count) {
   10401:	55                   	push   %ebp
   10402:	89 e5                	mov    %esp,%ebp
   10404:	83 ec 18             	sub    $0x18,%esp
    uint32_t addr = 0;
   10407:	c7 45 f4 00 00 00 00 	movl   $0x0,-0xc(%ebp)

    mutex_lock(&alloc->mutex);
   1040e:	8b 45 08             	mov    0x8(%ebp),%eax
   10411:	83 ec 0c             	sub    $0xc,%esp
   10414:	50                   	push   %eax
   10415:	e8 d7 20 00 00       	call   124f1 <mutex_lock>
   1041a:	83 c4 10             	add    $0x10,%esp

    int page_index = bitmap_alloc_nbits(&alloc->bitmap, 0, page_count);
   1041d:	8b 45 08             	mov    0x8(%ebp),%eax
   10420:	83 c0 14             	add    $0x14,%eax
   10423:	83 ec 04             	sub    $0x4,%esp
   10426:	ff 75 0c             	pushl  0xc(%ebp)
   10429:	6a 00                	push   $0x0
   1042b:	50                   	push   %eax
   1042c:	e8 f1 24 00 00       	call   12922 <bitmap_alloc_nbits>
   10431:	83 c4 10             	add    $0x10,%esp
   10434:	89 45 f0             	mov    %eax,-0x10(%ebp)
    if (page_index >= 0) {
   10437:	83 7d f0 00          	cmpl   $0x0,-0x10(%ebp)
   1043b:	78 17                	js     10454 <addr_alloc_page+0x53>
        addr = alloc->start + page_index * alloc->page_size;
   1043d:	8b 45 08             	mov    0x8(%ebp),%eax
   10440:	8b 50 20             	mov    0x20(%eax),%edx
   10443:	8b 45 08             	mov    0x8(%ebp),%eax
   10446:	8b 48 1c             	mov    0x1c(%eax),%ecx
   10449:	8b 45 f0             	mov    -0x10(%ebp),%eax
   1044c:	0f af c1             	imul   %ecx,%eax
   1044f:	01 d0                	add    %edx,%eax
   10451:	89 45 f4             	mov    %eax,-0xc(%ebp)
    }

    mutex_unlock(&alloc->mutex);
   10454:	8b 45 08             	mov    0x8(%ebp),%eax
   10457:	83 ec 0c             	sub    $0xc,%esp
   1045a:	50                   	push   %eax
   1045b:	e8 28 21 00 00       	call   12588 <mutex_unlock>
   10460:	83 c4 10             	add    $0x10,%esp
    return addr;
   10463:	8b 45 f4             	mov    -0xc(%ebp),%eax
}
   10466:	c9                   	leave  
   10467:	c3                   	ret    

00010468 <addr_free_page>:

/**
 * @brief 释放多页内存
 */
static void addr_free_page (addr_alloc_t * alloc, uint32_t addr, int page_count) {
   10468:	55                   	push   %ebp
   10469:	89 e5                	mov    %esp,%ebp
   1046b:	53                   	push   %ebx
   1046c:	83 ec 14             	sub    $0x14,%esp
    mutex_lock(&alloc->mutex);
   1046f:	8b 45 08             	mov    0x8(%ebp),%eax
   10472:	83 ec 0c             	sub    $0xc,%esp
   10475:	50                   	push   %eax
   10476:	e8 76 20 00 00       	call   124f1 <mutex_lock>
   1047b:	83 c4 10             	add    $0x10,%esp

    uint32_t pg_idx = (addr - alloc->start) / alloc->page_size;
   1047e:	8b 45 08             	mov    0x8(%ebp),%eax
   10481:	8b 40 20             	mov    0x20(%eax),%eax
   10484:	8b 55 0c             	mov    0xc(%ebp),%edx
   10487:	89 d1                	mov    %edx,%ecx
   10489:	29 c1                	sub    %eax,%ecx
   1048b:	8b 45 08             	mov    0x8(%ebp),%eax
   1048e:	8b 58 1c             	mov    0x1c(%eax),%ebx
   10491:	89 c8                	mov    %ecx,%eax
   10493:	ba 00 00 00 00       	mov    $0x0,%edx
   10498:	f7 f3                	div    %ebx
   1049a:	89 45 f4             	mov    %eax,-0xc(%ebp)
    bitmap_set_bit(&alloc->bitmap, pg_idx, page_count, 0);
   1049d:	8b 45 f4             	mov    -0xc(%ebp),%eax
   104a0:	8b 55 08             	mov    0x8(%ebp),%edx
   104a3:	83 c2 14             	add    $0x14,%edx
   104a6:	6a 00                	push   $0x0
   104a8:	ff 75 10             	pushl  0x10(%ebp)
   104ab:	50                   	push   %eax
   104ac:	52                   	push   %edx
   104ad:	e8 47 23 00 00       	call   127f9 <bitmap_set_bit>
   104b2:	83 c4 10             	add    $0x10,%esp

    mutex_unlock(&alloc->mutex);
   104b5:	8b 45 08             	mov    0x8(%ebp),%eax
   104b8:	83 ec 0c             	sub    $0xc,%esp
   104bb:	50                   	push   %eax
   104bc:	e8 c7 20 00 00       	call   12588 <mutex_unlock>
   104c1:	83 c4 10             	add    $0x10,%esp
}
   104c4:	90                   	nop
   104c5:	8b 5d fc             	mov    -0x4(%ebp),%ebx
   104c8:	c9                   	leave  
   104c9:	c3                   	ret    

000104ca <show_mem_info>:

static void show_mem_info (boot_info_t * boot_info) {
   104ca:	55                   	push   %ebp
   104cb:	89 e5                	mov    %esp,%ebp
   104cd:	83 ec 18             	sub    $0x18,%esp
    log_printf("mem region:");
   104d0:	83 ec 0c             	sub    $0xc,%esp
   104d3:	68 2c 33 01 00       	push   $0x1332c
   104d8:	e8 70 2d 00 00       	call   1324d <log_printf>
   104dd:	83 c4 10             	add    $0x10,%esp
    for (int i = 0; i < boot_info->ram_region_count; i++) {
   104e0:	c7 45 f4 00 00 00 00 	movl   $0x0,-0xc(%ebp)
   104e7:	eb 29                	jmp    10512 <show_mem_info+0x48>
        log_printf("[%d]: 0x%x - 0x%x", i,
   104e9:	8b 45 08             	mov    0x8(%ebp),%eax
   104ec:	8b 55 f4             	mov    -0xc(%ebp),%edx
   104ef:	8b 54 d0 04          	mov    0x4(%eax,%edx,8),%edx
   104f3:	8b 45 08             	mov    0x8(%ebp),%eax
   104f6:	8b 4d f4             	mov    -0xc(%ebp),%ecx
   104f9:	8b 04 c8             	mov    (%eax,%ecx,8),%eax
   104fc:	52                   	push   %edx
   104fd:	50                   	push   %eax
   104fe:	ff 75 f4             	pushl  -0xc(%ebp)
   10501:	68 38 33 01 00       	push   $0x13338
   10506:	e8 42 2d 00 00       	call   1324d <log_printf>
   1050b:	83 c4 10             	add    $0x10,%esp
    for (int i = 0; i < boot_info->ram_region_count; i++) {
   1050e:	83 45 f4 01          	addl   $0x1,-0xc(%ebp)
   10512:	8b 45 08             	mov    0x8(%ebp),%eax
   10515:	8b 40 50             	mov    0x50(%eax),%eax
   10518:	39 45 f4             	cmp    %eax,-0xc(%ebp)
   1051b:	7c cc                	jl     104e9 <show_mem_info+0x1f>
                    boot_info->ram_region_cfg[i].start,
                    boot_info->ram_region_cfg[i].size);
    }
    log_printf("\n");
   1051d:	83 ec 0c             	sub    $0xc,%esp
   10520:	68 4a 33 01 00       	push   $0x1334a
   10525:	e8 23 2d 00 00       	call   1324d <log_printf>
   1052a:	83 c4 10             	add    $0x10,%esp
}
   1052d:	90                   	nop
   1052e:	c9                   	leave  
   1052f:	c3                   	ret    

00010530 <total_mem_size>:

/**
 * @brief 获取可用的物理内存大小
 */
static uint32_t total_mem_size(boot_info_t * boot_info) {
   10530:	55                   	push   %ebp
   10531:	89 e5                	mov    %esp,%ebp
   10533:	83 ec 10             	sub    $0x10,%esp
    int mem_size = 0;
   10536:	c7 45 fc 00 00 00 00 	movl   $0x0,-0x4(%ebp)

    // 简单起见，暂不考虑中间有空洞的情况
    for (int i = 0; i < boot_info->ram_region_count; i++) {
   1053d:	c7 45 f8 00 00 00 00 	movl   $0x0,-0x8(%ebp)
   10544:	eb 16                	jmp    1055c <total_mem_size+0x2c>
        mem_size += boot_info->ram_region_cfg[i].size;
   10546:	8b 45 08             	mov    0x8(%ebp),%eax
   10549:	8b 55 f8             	mov    -0x8(%ebp),%edx
   1054c:	8b 54 d0 04          	mov    0x4(%eax,%edx,8),%edx
   10550:	8b 45 fc             	mov    -0x4(%ebp),%eax
   10553:	01 d0                	add    %edx,%eax
   10555:	89 45 fc             	mov    %eax,-0x4(%ebp)
    for (int i = 0; i < boot_info->ram_region_count; i++) {
   10558:	83 45 f8 01          	addl   $0x1,-0x8(%ebp)
   1055c:	8b 45 08             	mov    0x8(%ebp),%eax
   1055f:	8b 40 50             	mov    0x50(%eax),%eax
   10562:	39 45 f8             	cmp    %eax,-0x8(%ebp)
   10565:	7c df                	jl     10546 <total_mem_size+0x16>
    }
    return mem_size;
   10567:	8b 45 fc             	mov    -0x4(%ebp),%eax
}
   1056a:	c9                   	leave  
   1056b:	c3                   	ret    

0001056c <find_pte>:

pte_t * find_pte (pde_t * page_dir, uint32_t vaddr, int alloc) {
   1056c:	55                   	push   %ebp
   1056d:	89 e5                	mov    %esp,%ebp
   1056f:	83 ec 18             	sub    $0x18,%esp
    pte_t * page_table;

    pde_t *pde = page_dir + pde_index(vaddr);
   10572:	ff 75 0c             	pushl  0xc(%ebp)
   10575:	e8 8d fd ff ff       	call   10307 <pde_index>
   1057a:	83 c4 04             	add    $0x4,%esp
   1057d:	8d 14 85 00 00 00 00 	lea    0x0(,%eax,4),%edx
   10584:	8b 45 08             	mov    0x8(%ebp),%eax
   10587:	01 d0                	add    %edx,%eax
   10589:	89 45 f0             	mov    %eax,-0x10(%ebp)
    if (pde->present) {
   1058c:	8b 45 f0             	mov    -0x10(%ebp),%eax
   1058f:	0f b6 00             	movzbl (%eax),%eax
   10592:	83 e0 01             	and    $0x1,%eax
   10595:	84 c0                	test   %al,%al
   10597:	74 10                	je     105a9 <find_pte+0x3d>
        page_table = (pte_t *)pde_paddr(pde);
   10599:	ff 75 f0             	pushl  -0x10(%ebp)
   1059c:	e8 7a fd ff ff       	call   1031b <pde_paddr>
   105a1:	83 c4 04             	add    $0x4,%esp
   105a4:	89 45 f4             	mov    %eax,-0xc(%ebp)
   105a7:	eb 57                	jmp    10600 <find_pte+0x94>
    } else {
        // 如果不存在，则考虑分配一个
        if (alloc == 0) {
   105a9:	83 7d 10 00          	cmpl   $0x0,0x10(%ebp)
   105ad:	75 07                	jne    105b6 <find_pte+0x4a>
            return (pte_t *)0;
   105af:	b8 00 00 00 00       	mov    $0x0,%eax
   105b4:	eb 64                	jmp    1061a <find_pte+0xae>
        }

        // 分配一个物理页表
        uint32_t pg_paddr = addr_alloc_page(&paddr_alloc, 1);
   105b6:	83 ec 08             	sub    $0x8,%esp
   105b9:	6a 01                	push   $0x1
   105bb:	68 00 50 01 00       	push   $0x15000
   105c0:	e8 3c fe ff ff       	call   10401 <addr_alloc_page>
   105c5:	83 c4 10             	add    $0x10,%esp
   105c8:	89 45 ec             	mov    %eax,-0x14(%ebp)
        if (pg_paddr == 0) {
   105cb:	83 7d ec 00          	cmpl   $0x0,-0x14(%ebp)
   105cf:	75 07                	jne    105d8 <find_pte+0x6c>
            return (pte_t *)0;
   105d1:	b8 00 00 00 00       	mov    $0x0,%eax
   105d6:	eb 42                	jmp    1061a <find_pte+0xae>
        }

        // 设置为用户可读写，将被pte中设置所覆盖
        pde->v = pg_paddr | PTE_P | PTE_W | PDE_U;
   105d8:	8b 45 ec             	mov    -0x14(%ebp),%eax
   105db:	83 c8 07             	or     $0x7,%eax
   105de:	89 c2                	mov    %eax,%edx
   105e0:	8b 45 f0             	mov    -0x10(%ebp),%eax
   105e3:	89 10                	mov    %edx,(%eax)
        // 为物理页表绑定虚拟地址的映射，这样下面就可以计算出虚拟地址了
        //kernel_pg_last[pde_index(vaddr)].v = pg_paddr | PTE_P | PTE_W;

        // 清空页表，防止出现异常
        // 这里虚拟地址和物理地址一一映射，所以直接写入
        page_table = (pte_t *)(pg_paddr);
   105e5:	8b 45 ec             	mov    -0x14(%ebp),%eax
   105e8:	89 45 f4             	mov    %eax,-0xc(%ebp)
        kernel_memset(page_table, 0, MEM_PAGE_SIZE);
   105eb:	83 ec 04             	sub    $0x4,%esp
   105ee:	68 00 10 00 00       	push   $0x1000
   105f3:	6a 00                	push   $0x0
   105f5:	ff 75 f4             	pushl  -0xc(%ebp)
   105f8:	e8 11 26 00 00       	call   12c0e <kernel_memset>
   105fd:	83 c4 10             	add    $0x10,%esp
    }
  
    return page_table + pte_index(vaddr);
   10600:	83 ec 0c             	sub    $0xc,%esp
   10603:	ff 75 0c             	pushl  0xc(%ebp)
   10606:	e8 37 fd ff ff       	call   10342 <pte_index>
   1060b:	83 c4 10             	add    $0x10,%esp
   1060e:	8d 14 85 00 00 00 00 	lea    0x0(,%eax,4),%edx
   10615:	8b 45 f4             	mov    -0xc(%ebp),%eax
   10618:	01 d0                	add    %edx,%eax
}
   1061a:	c9                   	leave  
   1061b:	c3                   	ret    

0001061c <memory_create_map>:

/**
 * @brief 将指定的地址空间进行一页的映射
 */
int memory_create_map (pde_t * page_dir, uint32_t vaddr, uint32_t paddr, int count, uint32_t perm) {
   1061c:	55                   	push   %ebp
   1061d:	89 e5                	mov    %esp,%ebp
   1061f:	83 ec 18             	sub    $0x18,%esp
    for (int i = 0; i < count; i++) {
   10622:	c7 45 f4 00 00 00 00 	movl   $0x0,-0xc(%ebp)
   10629:	eb 6e                	jmp    10699 <memory_create_map+0x7d>
        // log_printf("create map: v-0x%x p-0x%x, perm: 0x%x", vaddr, paddr, perm);

        pte_t * pte = find_pte(page_dir, vaddr, 1);
   1062b:	83 ec 04             	sub    $0x4,%esp
   1062e:	6a 01                	push   $0x1
   10630:	ff 75 0c             	pushl  0xc(%ebp)
   10633:	ff 75 08             	pushl  0x8(%ebp)
   10636:	e8 31 ff ff ff       	call   1056c <find_pte>
   1063b:	83 c4 10             	add    $0x10,%esp
   1063e:	89 45 f0             	mov    %eax,-0x10(%ebp)
        if (pte == (pte_t *)0) {
   10641:	83 7d f0 00          	cmpl   $0x0,-0x10(%ebp)
   10645:	75 07                	jne    1064e <memory_create_map+0x32>
            // log_printf("create pte failed. pte == 0");
            return -1;
   10647:	b8 ff ff ff ff       	mov    $0xffffffff,%eax
   1064c:	eb 58                	jmp    106a6 <memory_create_map+0x8a>

        // 创建映射的时候，这条pte应当是不存在的。
        // 如果存在，说明可能有问题
        // log_printf("\tpte addr: 0x%x", (uint32_t)pte);

        ASSERT(pte->present == 0);
   1064e:	8b 45 f0             	mov    -0x10(%ebp),%eax
   10651:	0f b6 00             	movzbl (%eax),%eax
   10654:	83 e0 01             	and    $0x1,%eax
   10657:	84 c0                	test   %al,%al
   10659:	74 1c                	je     10677 <memory_create_map+0x5b>
   1065b:	68 4c 33 01 00       	push   $0x1334c
   10660:	68 84 34 01 00       	push   $0x13484
   10665:	68 8b 00 00 00       	push   $0x8b
   1066a:	68 60 33 01 00       	push   $0x13360
   1066f:	e8 e7 28 00 00       	call   12f5b <panic>
   10674:	83 c4 10             	add    $0x10,%esp

        pte->v = paddr | perm | PTE_P;
   10677:	8b 45 10             	mov    0x10(%ebp),%eax
   1067a:	0b 45 18             	or     0x18(%ebp),%eax
   1067d:	83 c8 01             	or     $0x1,%eax
   10680:	89 c2                	mov    %eax,%edx
   10682:	8b 45 f0             	mov    -0x10(%ebp),%eax
   10685:	89 10                	mov    %edx,(%eax)

        vaddr += MEM_PAGE_SIZE;
   10687:	81 45 0c 00 10 00 00 	addl   $0x1000,0xc(%ebp)
        paddr += MEM_PAGE_SIZE;
   1068e:	81 45 10 00 10 00 00 	addl   $0x1000,0x10(%ebp)
    for (int i = 0; i < count; i++) {
   10695:	83 45 f4 01          	addl   $0x1,-0xc(%ebp)
   10699:	8b 45 f4             	mov    -0xc(%ebp),%eax
   1069c:	3b 45 14             	cmp    0x14(%ebp),%eax
   1069f:	7c 8a                	jl     1062b <memory_create_map+0xf>
    }

    return 0;
   106a1:	b8 00 00 00 00       	mov    $0x0,%eax
}
   106a6:	c9                   	leave  
   106a7:	c3                   	ret    

000106a8 <create_kernel_table>:

/**
 * @brief 根据内存映射表，构造内核页表
 */
void create_kernel_table (void) {
   106a8:	55                   	push   %ebp
   106a9:	89 e5                	mov    %esp,%ebp
   106ab:	83 ec 28             	sub    $0x28,%esp
        // 扩展存储空间一一映射，方便直接操作
        {(void *)MEM_EXT_START, (void *)MEM_EXT_END,     (void *)MEM_EXT_START, PTE_W},
    };

    // 清空页目录表
    kernel_memset(kernel_page_dir, 0, sizeof(kernel_page_dir));
   106ae:	83 ec 04             	sub    $0x4,%esp
   106b1:	68 00 10 00 00       	push   $0x1000
   106b6:	6a 00                	push   $0x0
   106b8:	68 00 60 01 00       	push   $0x16000
   106bd:	e8 4c 25 00 00       	call   12c0e <kernel_memset>
   106c2:	83 c4 10             	add    $0x10,%esp

    // 清空后，然后依次根据映射关系创建映射表
    for (int i = 0; i < sizeof(kernel_map) / sizeof(memory_map_t); i++) {
   106c5:	c7 45 f4 00 00 00 00 	movl   $0x0,-0xc(%ebp)
   106cc:	e9 8b 00 00 00       	jmp    1075c <create_kernel_table+0xb4>
        memory_map_t * map = kernel_map + i;
   106d1:	8b 45 f4             	mov    -0xc(%ebp),%eax
   106d4:	c1 e0 04             	shl    $0x4,%eax
   106d7:	05 00 40 01 00       	add    $0x14000,%eax
   106dc:	89 45 f0             	mov    %eax,-0x10(%ebp)

        // 可能有多个页，建立多个页的配置
        // 简化起见，不考虑4M的情况
        uint32_t vstart = down2((uint32_t)map->vstart, MEM_PAGE_SIZE);
   106df:	8b 45 f0             	mov    -0x10(%ebp),%eax
   106e2:	8b 00                	mov    (%eax),%eax
   106e4:	83 ec 08             	sub    $0x8,%esp
   106e7:	68 00 10 00 00       	push   $0x1000
   106ec:	50                   	push   %eax
   106ed:	e8 fc fb ff ff       	call   102ee <down2>
   106f2:	83 c4 10             	add    $0x10,%esp
   106f5:	89 45 ec             	mov    %eax,-0x14(%ebp)
        uint32_t vend = up2((uint32_t)map->vend, MEM_PAGE_SIZE);
   106f8:	8b 45 f0             	mov    -0x10(%ebp),%eax
   106fb:	8b 40 04             	mov    0x4(%eax),%eax
   106fe:	83 ec 08             	sub    $0x8,%esp
   10701:	68 00 10 00 00       	push   $0x1000
   10706:	50                   	push   %eax
   10707:	e8 cb fb ff ff       	call   102d7 <up2>
   1070c:	83 c4 10             	add    $0x10,%esp
   1070f:	89 45 e8             	mov    %eax,-0x18(%ebp)
        uint32_t paddr = down2((uint32_t)map->pstart, MEM_PAGE_SIZE);
   10712:	8b 45 f0             	mov    -0x10(%ebp),%eax
   10715:	8b 40 08             	mov    0x8(%eax),%eax
   10718:	83 ec 08             	sub    $0x8,%esp
   1071b:	68 00 10 00 00       	push   $0x1000
   10720:	50                   	push   %eax
   10721:	e8 c8 fb ff ff       	call   102ee <down2>
   10726:	83 c4 10             	add    $0x10,%esp
   10729:	89 45 e4             	mov    %eax,-0x1c(%ebp)
        int page_count = (vend - vstart) / MEM_PAGE_SIZE;
   1072c:	8b 45 e8             	mov    -0x18(%ebp),%eax
   1072f:	2b 45 ec             	sub    -0x14(%ebp),%eax
   10732:	c1 e8 0c             	shr    $0xc,%eax
   10735:	89 45 e0             	mov    %eax,-0x20(%ebp)

        memory_create_map(kernel_page_dir, vstart, (uint32_t)paddr, page_count, map->perm);
   10738:	8b 45 f0             	mov    -0x10(%ebp),%eax
   1073b:	8b 40 0c             	mov    0xc(%eax),%eax
   1073e:	83 ec 0c             	sub    $0xc,%esp
   10741:	50                   	push   %eax
   10742:	ff 75 e0             	pushl  -0x20(%ebp)
   10745:	ff 75 e4             	pushl  -0x1c(%ebp)
   10748:	ff 75 ec             	pushl  -0x14(%ebp)
   1074b:	68 00 60 01 00       	push   $0x16000
   10750:	e8 c7 fe ff ff       	call   1061c <memory_create_map>
   10755:	83 c4 20             	add    $0x20,%esp
    for (int i = 0; i < sizeof(kernel_map) / sizeof(memory_map_t); i++) {
   10758:	83 45 f4 01          	addl   $0x1,-0xc(%ebp)
   1075c:	8b 45 f4             	mov    -0xc(%ebp),%eax
   1075f:	83 f8 04             	cmp    $0x4,%eax
   10762:	0f 86 69 ff ff ff    	jbe    106d1 <create_kernel_table+0x29>
    }
}
   10768:	90                   	nop
   10769:	c9                   	leave  
   1076a:	c3                   	ret    

0001076b <memory_create_uvm>:

/**
 * @brief 创建进程的初始页表
 * 主要的工作创建页目录表，然后从内核页表中复制一部分
 */
uint32_t memory_create_uvm (void) {
   1076b:	55                   	push   %ebp
   1076c:	89 e5                	mov    %esp,%ebp
   1076e:	83 ec 18             	sub    $0x18,%esp
    pde_t * page_dir = (pde_t *)addr_alloc_page(&paddr_alloc, 1);
   10771:	83 ec 08             	sub    $0x8,%esp
   10774:	6a 01                	push   $0x1
   10776:	68 00 50 01 00       	push   $0x15000
   1077b:	e8 81 fc ff ff       	call   10401 <addr_alloc_page>
   10780:	83 c4 10             	add    $0x10,%esp
   10783:	89 45 f0             	mov    %eax,-0x10(%ebp)
    if (page_dir == 0) {
   10786:	83 7d f0 00          	cmpl   $0x0,-0x10(%ebp)
   1078a:	75 07                	jne    10793 <memory_create_uvm+0x28>
        return 0;
   1078c:	b8 00 00 00 00       	mov    $0x0,%eax
   10791:	eb 5b                	jmp    107ee <memory_create_uvm+0x83>
    }
    kernel_memset((void *)page_dir, 0, MEM_PAGE_SIZE);
   10793:	83 ec 04             	sub    $0x4,%esp
   10796:	68 00 10 00 00       	push   $0x1000
   1079b:	6a 00                	push   $0x0
   1079d:	ff 75 f0             	pushl  -0x10(%ebp)
   107a0:	e8 69 24 00 00       	call   12c0e <kernel_memset>
   107a5:	83 c4 10             	add    $0x10,%esp

    // 复制整个内核空间的页目录项，以便与其它进程共享内核空间
    // 用户空间的内存映射暂不处理，等加载程序时创建
    uint32_t user_pde_start = pde_index(MEMORY_TASK_BASE);
   107a8:	83 ec 0c             	sub    $0xc,%esp
   107ab:	68 00 00 00 80       	push   $0x80000000
   107b0:	e8 52 fb ff ff       	call   10307 <pde_index>
   107b5:	83 c4 10             	add    $0x10,%esp
   107b8:	89 45 ec             	mov    %eax,-0x14(%ebp)
    for (int i = 0; i < user_pde_start; i++) {
   107bb:	c7 45 f4 00 00 00 00 	movl   $0x0,-0xc(%ebp)
   107c2:	eb 1f                	jmp    107e3 <memory_create_uvm+0x78>
        page_dir[i].v = kernel_page_dir[i].v;
   107c4:	8b 45 f4             	mov    -0xc(%ebp),%eax
   107c7:	8d 14 85 00 00 00 00 	lea    0x0(,%eax,4),%edx
   107ce:	8b 45 f0             	mov    -0x10(%ebp),%eax
   107d1:	01 c2                	add    %eax,%edx
   107d3:	8b 45 f4             	mov    -0xc(%ebp),%eax
   107d6:	8b 04 85 00 60 01 00 	mov    0x16000(,%eax,4),%eax
   107dd:	89 02                	mov    %eax,(%edx)
    for (int i = 0; i < user_pde_start; i++) {
   107df:	83 45 f4 01          	addl   $0x1,-0xc(%ebp)
   107e3:	8b 45 f4             	mov    -0xc(%ebp),%eax
   107e6:	39 45 ec             	cmp    %eax,-0x14(%ebp)
   107e9:	77 d9                	ja     107c4 <memory_create_uvm+0x59>
    }

    return (uint32_t)page_dir;
   107eb:	8b 45 f0             	mov    -0x10(%ebp),%eax
}
   107ee:	c9                   	leave  
   107ef:	c3                   	ret    

000107f0 <memory_destroy_uvm>:

/**
 * @brief 销毁用户空间内存
 */
void memory_destroy_uvm (uint32_t page_dir) {
   107f0:	55                   	push   %ebp
   107f1:	89 e5                	mov    %esp,%ebp
   107f3:	83 ec 28             	sub    $0x28,%esp
    uint32_t user_pde_start = pde_index(MEMORY_TASK_BASE);
   107f6:	68 00 00 00 80       	push   $0x80000000
   107fb:	e8 07 fb ff ff       	call   10307 <pde_index>
   10800:	83 c4 04             	add    $0x4,%esp
   10803:	89 45 e4             	mov    %eax,-0x1c(%ebp)
    pde_t * pde = (pde_t *)page_dir + user_pde_start;
   10806:	8b 45 e4             	mov    -0x1c(%ebp),%eax
   10809:	8d 14 85 00 00 00 00 	lea    0x0(,%eax,4),%edx
   10810:	8b 45 08             	mov    0x8(%ebp),%eax
   10813:	01 d0                	add    %edx,%eax
   10815:	89 45 f4             	mov    %eax,-0xc(%ebp)

    ASSERT(page_dir != 0);
   10818:	83 7d 08 00          	cmpl   $0x0,0x8(%ebp)
   1081c:	75 1c                	jne    1083a <memory_destroy_uvm+0x4a>
   1081e:	68 8e 33 01 00       	push   $0x1338e
   10823:	68 98 34 01 00       	push   $0x13498
   10828:	68 d7 00 00 00       	push   $0xd7
   1082d:	68 60 33 01 00       	push   $0x13360
   10832:	e8 24 27 00 00       	call   12f5b <panic>
   10837:	83 c4 10             	add    $0x10,%esp

    // 释放页表中对应的各项，不包含映射的内核页面
    for (int i = user_pde_start; i < PDE_CNT; i++, pde++) {
   1083a:	8b 45 e4             	mov    -0x1c(%ebp),%eax
   1083d:	89 45 f0             	mov    %eax,-0x10(%ebp)
   10840:	e9 95 00 00 00       	jmp    108da <memory_destroy_uvm+0xea>
        if (!pde->present) {
   10845:	8b 45 f4             	mov    -0xc(%ebp),%eax
   10848:	0f b6 00             	movzbl (%eax),%eax
   1084b:	83 e0 01             	and    $0x1,%eax
   1084e:	84 c0                	test   %al,%al
   10850:	74 7f                	je     108d1 <memory_destroy_uvm+0xe1>
            continue;
        }

        // 释放页表对应的物理页 + 页表
        pte_t * pte = (pte_t *)pde_paddr(pde);
   10852:	83 ec 0c             	sub    $0xc,%esp
   10855:	ff 75 f4             	pushl  -0xc(%ebp)
   10858:	e8 be fa ff ff       	call   1031b <pde_paddr>
   1085d:	83 c4 10             	add    $0x10,%esp
   10860:	89 45 ec             	mov    %eax,-0x14(%ebp)
        for (int j = 0; j < PTE_CNT; j++, pte++) {
   10863:	c7 45 e8 00 00 00 00 	movl   $0x0,-0x18(%ebp)
   1086a:	eb 39                	jmp    108a5 <memory_destroy_uvm+0xb5>
            if (!pte->present) {
   1086c:	8b 45 ec             	mov    -0x14(%ebp),%eax
   1086f:	0f b6 00             	movzbl (%eax),%eax
   10872:	83 e0 01             	and    $0x1,%eax
   10875:	84 c0                	test   %al,%al
   10877:	74 23                	je     1089c <memory_destroy_uvm+0xac>
                continue;
            }

            addr_free_page(&paddr_alloc, pte_paddr(pte), 1);
   10879:	83 ec 0c             	sub    $0xc,%esp
   1087c:	ff 75 ec             	pushl  -0x14(%ebp)
   1087f:	e8 ce fa ff ff       	call   10352 <pte_paddr>
   10884:	83 c4 10             	add    $0x10,%esp
   10887:	83 ec 04             	sub    $0x4,%esp
   1088a:	6a 01                	push   $0x1
   1088c:	50                   	push   %eax
   1088d:	68 00 50 01 00       	push   $0x15000
   10892:	e8 d1 fb ff ff       	call   10468 <addr_free_page>
   10897:	83 c4 10             	add    $0x10,%esp
   1089a:	eb 01                	jmp    1089d <memory_destroy_uvm+0xad>
                continue;
   1089c:	90                   	nop
        for (int j = 0; j < PTE_CNT; j++, pte++) {
   1089d:	83 45 e8 01          	addl   $0x1,-0x18(%ebp)
   108a1:	83 45 ec 04          	addl   $0x4,-0x14(%ebp)
   108a5:	81 7d e8 ff 03 00 00 	cmpl   $0x3ff,-0x18(%ebp)
   108ac:	7e be                	jle    1086c <memory_destroy_uvm+0x7c>
        }

        addr_free_page(&paddr_alloc, (uint32_t)pde_paddr(pde), 1);
   108ae:	83 ec 0c             	sub    $0xc,%esp
   108b1:	ff 75 f4             	pushl  -0xc(%ebp)
   108b4:	e8 62 fa ff ff       	call   1031b <pde_paddr>
   108b9:	83 c4 10             	add    $0x10,%esp
   108bc:	83 ec 04             	sub    $0x4,%esp
   108bf:	6a 01                	push   $0x1
   108c1:	50                   	push   %eax
   108c2:	68 00 50 01 00       	push   $0x15000
   108c7:	e8 9c fb ff ff       	call   10468 <addr_free_page>
   108cc:	83 c4 10             	add    $0x10,%esp
   108cf:	eb 01                	jmp    108d2 <memory_destroy_uvm+0xe2>
            continue;
   108d1:	90                   	nop
    for (int i = user_pde_start; i < PDE_CNT; i++, pde++) {
   108d2:	83 45 f0 01          	addl   $0x1,-0x10(%ebp)
   108d6:	83 45 f4 04          	addl   $0x4,-0xc(%ebp)
   108da:	81 7d f0 ff 03 00 00 	cmpl   $0x3ff,-0x10(%ebp)
   108e1:	0f 8e 5e ff ff ff    	jle    10845 <memory_destroy_uvm+0x55>
    }

    // 页目录表
    addr_free_page(&paddr_alloc, page_dir, 1);
   108e7:	83 ec 04             	sub    $0x4,%esp
   108ea:	6a 01                	push   $0x1
   108ec:	ff 75 08             	pushl  0x8(%ebp)
   108ef:	68 00 50 01 00       	push   $0x15000
   108f4:	e8 6f fb ff ff       	call   10468 <addr_free_page>
   108f9:	83 c4 10             	add    $0x10,%esp
}
   108fc:	90                   	nop
   108fd:	c9                   	leave  
   108fe:	c3                   	ret    

000108ff <memory_copy_uvm>:

/**
 * @brief 复制页表及其所有的内存空间
 */
uint32_t memory_copy_uvm (uint32_t page_dir) {
   108ff:	55                   	push   %ebp
   10900:	89 e5                	mov    %esp,%ebp
   10902:	83 ec 38             	sub    $0x38,%esp
    // 复制基础页表
    uint32_t to_page_dir = memory_create_uvm();
   10905:	e8 61 fe ff ff       	call   1076b <memory_create_uvm>
   1090a:	89 45 e4             	mov    %eax,-0x1c(%ebp)
    if (to_page_dir == 0) {
   1090d:	83 7d e4 00          	cmpl   $0x0,-0x1c(%ebp)
   10911:	0f 84 1b 01 00 00    	je     10a32 <memory_copy_uvm+0x133>
        goto copy_uvm_failed;
    }

    // 再复制用户空间的各项
    uint32_t user_pde_start = pde_index(MEMORY_TASK_BASE);
   10917:	83 ec 0c             	sub    $0xc,%esp
   1091a:	68 00 00 00 80       	push   $0x80000000
   1091f:	e8 e3 f9 ff ff       	call   10307 <pde_index>
   10924:	83 c4 10             	add    $0x10,%esp
   10927:	89 45 e0             	mov    %eax,-0x20(%ebp)
    pde_t * pde = (pde_t *)page_dir + user_pde_start;
   1092a:	8b 45 e0             	mov    -0x20(%ebp),%eax
   1092d:	8d 14 85 00 00 00 00 	lea    0x0(,%eax,4),%edx
   10934:	8b 45 08             	mov    0x8(%ebp),%eax
   10937:	01 d0                	add    %edx,%eax
   10939:	89 45 f4             	mov    %eax,-0xc(%ebp)

    // 遍历用户空间页目录项
    for (int i = user_pde_start; i < PDE_CNT; i++, pde++) {
   1093c:	8b 45 e0             	mov    -0x20(%ebp),%eax
   1093f:	89 45 f0             	mov    %eax,-0x10(%ebp)
   10942:	e9 d9 00 00 00       	jmp    10a20 <memory_copy_uvm+0x121>
        if (!pde->present) {
   10947:	8b 45 f4             	mov    -0xc(%ebp),%eax
   1094a:	0f b6 00             	movzbl (%eax),%eax
   1094d:	83 e0 01             	and    $0x1,%eax
   10950:	84 c0                	test   %al,%al
   10952:	0f 84 bf 00 00 00    	je     10a17 <memory_copy_uvm+0x118>
            continue;
        }

        // 遍历页表
        pte_t * pte = (pte_t *)pde_paddr(pde);
   10958:	83 ec 0c             	sub    $0xc,%esp
   1095b:	ff 75 f4             	pushl  -0xc(%ebp)
   1095e:	e8 b8 f9 ff ff       	call   1031b <pde_paddr>
   10963:	83 c4 10             	add    $0x10,%esp
   10966:	89 45 ec             	mov    %eax,-0x14(%ebp)
        for (int j = 0; j < PTE_CNT; j++, pte++) {
   10969:	c7 45 e8 00 00 00 00 	movl   $0x0,-0x18(%ebp)
   10970:	e9 93 00 00 00       	jmp    10a08 <memory_copy_uvm+0x109>
            if (!pte->present) {
   10975:	8b 45 ec             	mov    -0x14(%ebp),%eax
   10978:	0f b6 00             	movzbl (%eax),%eax
   1097b:	83 e0 01             	and    $0x1,%eax
   1097e:	84 c0                	test   %al,%al
   10980:	74 7d                	je     109ff <memory_copy_uvm+0x100>
                continue;
            }

            // 分配物理内存
            uint32_t page = addr_alloc_page(&paddr_alloc, 1);
   10982:	83 ec 08             	sub    $0x8,%esp
   10985:	6a 01                	push   $0x1
   10987:	68 00 50 01 00       	push   $0x15000
   1098c:	e8 70 fa ff ff       	call   10401 <addr_alloc_page>
   10991:	83 c4 10             	add    $0x10,%esp
   10994:	89 45 dc             	mov    %eax,-0x24(%ebp)
            if (page == 0) {
   10997:	83 7d dc 00          	cmpl   $0x0,-0x24(%ebp)
   1099b:	0f 84 94 00 00 00    	je     10a35 <memory_copy_uvm+0x136>
                goto copy_uvm_failed;
            }

            // 建立映射关系
            uint32_t vaddr = (i << 22) | (j << 12);
   109a1:	8b 45 f0             	mov    -0x10(%ebp),%eax
   109a4:	c1 e0 16             	shl    $0x16,%eax
   109a7:	89 c2                	mov    %eax,%edx
   109a9:	8b 45 e8             	mov    -0x18(%ebp),%eax
   109ac:	c1 e0 0c             	shl    $0xc,%eax
   109af:	09 d0                	or     %edx,%eax
   109b1:	89 45 d8             	mov    %eax,-0x28(%ebp)
            int err = memory_create_map((pde_t *)to_page_dir, vaddr, page, 1, get_pte_perm(pte));
   109b4:	83 ec 0c             	sub    $0xc,%esp
   109b7:	ff 75 ec             	pushl  -0x14(%ebp)
   109ba:	e8 ba f9 ff ff       	call   10379 <get_pte_perm>
   109bf:	83 c4 10             	add    $0x10,%esp
   109c2:	89 c2                	mov    %eax,%edx
   109c4:	8b 45 e4             	mov    -0x1c(%ebp),%eax
   109c7:	83 ec 0c             	sub    $0xc,%esp
   109ca:	52                   	push   %edx
   109cb:	6a 01                	push   $0x1
   109cd:	ff 75 dc             	pushl  -0x24(%ebp)
   109d0:	ff 75 d8             	pushl  -0x28(%ebp)
   109d3:	50                   	push   %eax
   109d4:	e8 43 fc ff ff       	call   1061c <memory_create_map>
   109d9:	83 c4 20             	add    $0x20,%esp
   109dc:	89 45 d4             	mov    %eax,-0x2c(%ebp)
            if (err < 0) {
   109df:	83 7d d4 00          	cmpl   $0x0,-0x2c(%ebp)
   109e3:	78 53                	js     10a38 <memory_copy_uvm+0x139>
                goto copy_uvm_failed;
            }

            // 复制内容。
            kernel_memcpy((void *)page, (void *)vaddr, MEM_PAGE_SIZE);
   109e5:	8b 55 d8             	mov    -0x28(%ebp),%edx
   109e8:	8b 45 dc             	mov    -0x24(%ebp),%eax
   109eb:	83 ec 04             	sub    $0x4,%esp
   109ee:	68 00 10 00 00       	push   $0x1000
   109f3:	52                   	push   %edx
   109f4:	50                   	push   %eax
   109f5:	e8 c5 21 00 00       	call   12bbf <kernel_memcpy>
   109fa:	83 c4 10             	add    $0x10,%esp
   109fd:	eb 01                	jmp    10a00 <memory_copy_uvm+0x101>
                continue;
   109ff:	90                   	nop
        for (int j = 0; j < PTE_CNT; j++, pte++) {
   10a00:	83 45 e8 01          	addl   $0x1,-0x18(%ebp)
   10a04:	83 45 ec 04          	addl   $0x4,-0x14(%ebp)
   10a08:	81 7d e8 ff 03 00 00 	cmpl   $0x3ff,-0x18(%ebp)
   10a0f:	0f 8e 60 ff ff ff    	jle    10975 <memory_copy_uvm+0x76>
   10a15:	eb 01                	jmp    10a18 <memory_copy_uvm+0x119>
            continue;
   10a17:	90                   	nop
    for (int i = user_pde_start; i < PDE_CNT; i++, pde++) {
   10a18:	83 45 f0 01          	addl   $0x1,-0x10(%ebp)
   10a1c:	83 45 f4 04          	addl   $0x4,-0xc(%ebp)
   10a20:	81 7d f0 ff 03 00 00 	cmpl   $0x3ff,-0x10(%ebp)
   10a27:	0f 8e 1a ff ff ff    	jle    10947 <memory_copy_uvm+0x48>
        }
    }
    return to_page_dir;
   10a2d:	8b 45 e4             	mov    -0x1c(%ebp),%eax
   10a30:	eb 20                	jmp    10a52 <memory_copy_uvm+0x153>
        goto copy_uvm_failed;
   10a32:	90                   	nop
   10a33:	eb 04                	jmp    10a39 <memory_copy_uvm+0x13a>
                goto copy_uvm_failed;
   10a35:	90                   	nop
   10a36:	eb 01                	jmp    10a39 <memory_copy_uvm+0x13a>
                goto copy_uvm_failed;
   10a38:	90                   	nop

copy_uvm_failed:
    if (to_page_dir) {
   10a39:	83 7d e4 00          	cmpl   $0x0,-0x1c(%ebp)
   10a3d:	74 0e                	je     10a4d <memory_copy_uvm+0x14e>
        memory_destroy_uvm(to_page_dir);
   10a3f:	83 ec 0c             	sub    $0xc,%esp
   10a42:	ff 75 e4             	pushl  -0x1c(%ebp)
   10a45:	e8 a6 fd ff ff       	call   107f0 <memory_destroy_uvm>
   10a4a:	83 c4 10             	add    $0x10,%esp
    }
    return -1;
   10a4d:	b8 ff ff ff ff       	mov    $0xffffffff,%eax
}
   10a52:	c9                   	leave  
   10a53:	c3                   	ret    

00010a54 <memory_get_paddr>:

/**
 * @brief 获取指定虚拟地址的物理地址
 * 如果转换失败，返回0。
 */
uint32_t memory_get_paddr (uint32_t page_dir, uint32_t vaddr) {
   10a54:	55                   	push   %ebp
   10a55:	89 e5                	mov    %esp,%ebp
   10a57:	83 ec 18             	sub    $0x18,%esp
    pte_t * pte = find_pte((pde_t *)page_dir, vaddr, 0);
   10a5a:	8b 45 08             	mov    0x8(%ebp),%eax
   10a5d:	83 ec 04             	sub    $0x4,%esp
   10a60:	6a 00                	push   $0x0
   10a62:	ff 75 0c             	pushl  0xc(%ebp)
   10a65:	50                   	push   %eax
   10a66:	e8 01 fb ff ff       	call   1056c <find_pte>
   10a6b:	83 c4 10             	add    $0x10,%esp
   10a6e:	89 45 f4             	mov    %eax,-0xc(%ebp)
    if (pte == (pte_t *)0) {
   10a71:	83 7d f4 00          	cmpl   $0x0,-0xc(%ebp)
   10a75:	75 07                	jne    10a7e <memory_get_paddr+0x2a>
        return 0;
   10a77:	b8 00 00 00 00       	mov    $0x0,%eax
   10a7c:	eb 1a                	jmp    10a98 <memory_get_paddr+0x44>
    }

    return pte_paddr(pte) + (vaddr & (MEM_PAGE_SIZE - 1));
   10a7e:	83 ec 0c             	sub    $0xc,%esp
   10a81:	ff 75 f4             	pushl  -0xc(%ebp)
   10a84:	e8 c9 f8 ff ff       	call   10352 <pte_paddr>
   10a89:	83 c4 10             	add    $0x10,%esp
   10a8c:	89 c2                	mov    %eax,%edx
   10a8e:	8b 45 0c             	mov    0xc(%ebp),%eax
   10a91:	25 ff 0f 00 00       	and    $0xfff,%eax
   10a96:	01 d0                	add    %edx,%eax
}
   10a98:	c9                   	leave  
   10a99:	c3                   	ret    

00010a9a <memory_copy_uvm_data>:

/**
 * @brief 在不同的进程空间中拷贝字符串
 * page_dir为目标页表，当前仍为老页表
 */
int memory_copy_uvm_data(uint32_t to, uint32_t page_dir, uint32_t from, uint32_t size) {
   10a9a:	55                   	push   %ebp
   10a9b:	89 e5                	mov    %esp,%ebp
   10a9d:	83 ec 18             	sub    $0x18,%esp
    char *buf, *pa0;

    while(size > 0){
   10aa0:	eb 6e                	jmp    10b10 <memory_copy_uvm_data+0x76>
        // 获取目标的物理地址, 也即其另一个虚拟地址
        uint32_t to_paddr = memory_get_paddr(page_dir, to);
   10aa2:	83 ec 08             	sub    $0x8,%esp
   10aa5:	ff 75 08             	pushl  0x8(%ebp)
   10aa8:	ff 75 0c             	pushl  0xc(%ebp)
   10aab:	e8 a4 ff ff ff       	call   10a54 <memory_get_paddr>
   10ab0:	83 c4 10             	add    $0x10,%esp
   10ab3:	89 45 f0             	mov    %eax,-0x10(%ebp)
        if (to_paddr == 0) {
   10ab6:	83 7d f0 00          	cmpl   $0x0,-0x10(%ebp)
   10aba:	75 07                	jne    10ac3 <memory_copy_uvm_data+0x29>
            return -1;
   10abc:	b8 ff ff ff ff       	mov    $0xffffffff,%eax
   10ac1:	eb 58                	jmp    10b1b <memory_copy_uvm_data+0x81>
        }

        // 计算当前可拷贝的大小
        uint32_t offset_in_page = to_paddr & (MEM_PAGE_SIZE - 1);
   10ac3:	8b 45 f0             	mov    -0x10(%ebp),%eax
   10ac6:	25 ff 0f 00 00       	and    $0xfff,%eax
   10acb:	89 45 ec             	mov    %eax,-0x14(%ebp)
        uint32_t curr_size = MEM_PAGE_SIZE - offset_in_page;
   10ace:	b8 00 10 00 00       	mov    $0x1000,%eax
   10ad3:	2b 45 ec             	sub    -0x14(%ebp),%eax
   10ad6:	89 45 f4             	mov    %eax,-0xc(%ebp)
        if (curr_size > size) {
   10ad9:	8b 45 f4             	mov    -0xc(%ebp),%eax
   10adc:	3b 45 14             	cmp    0x14(%ebp),%eax
   10adf:	76 06                	jbe    10ae7 <memory_copy_uvm_data+0x4d>
            curr_size = size;       // 如果比较大，超过页边界，则只拷贝此页内的
   10ae1:	8b 45 14             	mov    0x14(%ebp),%eax
   10ae4:	89 45 f4             	mov    %eax,-0xc(%ebp)
        }

        kernel_memcpy((void *)to_paddr, (void *)from, curr_size);
   10ae7:	8b 4d f4             	mov    -0xc(%ebp),%ecx
   10aea:	8b 55 10             	mov    0x10(%ebp),%edx
   10aed:	8b 45 f0             	mov    -0x10(%ebp),%eax
   10af0:	83 ec 04             	sub    $0x4,%esp
   10af3:	51                   	push   %ecx
   10af4:	52                   	push   %edx
   10af5:	50                   	push   %eax
   10af6:	e8 c4 20 00 00       	call   12bbf <kernel_memcpy>
   10afb:	83 c4 10             	add    $0x10,%esp

        size -= curr_size;
   10afe:	8b 45 f4             	mov    -0xc(%ebp),%eax
   10b01:	29 45 14             	sub    %eax,0x14(%ebp)
        to += curr_size;
   10b04:	8b 45 f4             	mov    -0xc(%ebp),%eax
   10b07:	01 45 08             	add    %eax,0x8(%ebp)
        from += curr_size;
   10b0a:	8b 45 f4             	mov    -0xc(%ebp),%eax
   10b0d:	01 45 10             	add    %eax,0x10(%ebp)
    while(size > 0){
   10b10:	83 7d 14 00          	cmpl   $0x0,0x14(%ebp)
   10b14:	75 8c                	jne    10aa2 <memory_copy_uvm_data+0x8>
  }

  return 0;
   10b16:	b8 00 00 00 00       	mov    $0x0,%eax
}
   10b1b:	c9                   	leave  
   10b1c:	c3                   	ret    

00010b1d <memory_alloc_for_page_dir>:

uint32_t memory_alloc_for_page_dir (uint32_t page_dir, uint32_t vaddr, uint32_t size, int perm) {
   10b1d:	55                   	push   %ebp
   10b1e:	89 e5                	mov    %esp,%ebp
   10b20:	83 ec 28             	sub    $0x28,%esp
    uint32_t curr_vaddr = vaddr;
   10b23:	8b 45 0c             	mov    0xc(%ebp),%eax
   10b26:	89 45 f4             	mov    %eax,-0xc(%ebp)
    int page_count = up2(size, MEM_PAGE_SIZE) / MEM_PAGE_SIZE;
   10b29:	68 00 10 00 00       	push   $0x1000
   10b2e:	ff 75 10             	pushl  0x10(%ebp)
   10b31:	e8 a1 f7 ff ff       	call   102d7 <up2>
   10b36:	83 c4 08             	add    $0x8,%esp
   10b39:	c1 e8 0c             	shr    $0xc,%eax
   10b3c:	89 45 ec             	mov    %eax,-0x14(%ebp)
    vaddr = down2(vaddr, MEM_PAGE_SIZE);
   10b3f:	68 00 10 00 00       	push   $0x1000
   10b44:	ff 75 0c             	pushl  0xc(%ebp)
   10b47:	e8 a2 f7 ff ff       	call   102ee <down2>
   10b4c:	83 c4 08             	add    $0x8,%esp
   10b4f:	89 45 0c             	mov    %eax,0xc(%ebp)

    // 逐页分配内存，然后建立映射关系
    for (int i = 0; i < page_count; i++) {
   10b52:	c7 45 f0 00 00 00 00 	movl   $0x0,-0x10(%ebp)
   10b59:	e9 95 00 00 00       	jmp    10bf3 <memory_alloc_for_page_dir+0xd6>
        // 分配需要的内存
        uint32_t paddr = addr_alloc_page(&paddr_alloc, 1);
   10b5e:	83 ec 08             	sub    $0x8,%esp
   10b61:	6a 01                	push   $0x1
   10b63:	68 00 50 01 00       	push   $0x15000
   10b68:	e8 94 f8 ff ff       	call   10401 <addr_alloc_page>
   10b6d:	83 c4 10             	add    $0x10,%esp
   10b70:	89 45 e8             	mov    %eax,-0x18(%ebp)
        if (paddr == 0) {
   10b73:	83 7d e8 00          	cmpl   $0x0,-0x18(%ebp)
   10b77:	75 17                	jne    10b90 <memory_alloc_for_page_dir+0x73>
            log_printf("mem alloc failed. no memory");
   10b79:	83 ec 0c             	sub    $0xc,%esp
   10b7c:	68 9c 33 01 00       	push   $0x1339c
   10b81:	e8 c7 26 00 00       	call   1324d <log_printf>
   10b86:	83 c4 10             	add    $0x10,%esp
            return 0;
   10b89:	b8 00 00 00 00       	mov    $0x0,%eax
   10b8e:	eb 74                	jmp    10c04 <memory_alloc_for_page_dir+0xe7>
        }

        // 建立分配的内存与指定地址的关联
        int err = memory_create_map((pde_t *)page_dir, curr_vaddr, paddr, 1, perm);
   10b90:	8b 55 14             	mov    0x14(%ebp),%edx
   10b93:	8b 45 08             	mov    0x8(%ebp),%eax
   10b96:	83 ec 0c             	sub    $0xc,%esp
   10b99:	52                   	push   %edx
   10b9a:	6a 01                	push   $0x1
   10b9c:	ff 75 e8             	pushl  -0x18(%ebp)
   10b9f:	ff 75 f4             	pushl  -0xc(%ebp)
   10ba2:	50                   	push   %eax
   10ba3:	e8 74 fa ff ff       	call   1061c <memory_create_map>
   10ba8:	83 c4 20             	add    $0x20,%esp
   10bab:	89 45 e4             	mov    %eax,-0x1c(%ebp)
        if (err < 0) {
   10bae:	83 7d e4 00          	cmpl   $0x0,-0x1c(%ebp)
   10bb2:	79 34                	jns    10be8 <memory_alloc_for_page_dir+0xcb>
            log_printf("create memory map failed. err = %d", err);
   10bb4:	83 ec 08             	sub    $0x8,%esp
   10bb7:	ff 75 e4             	pushl  -0x1c(%ebp)
   10bba:	68 b8 33 01 00       	push   $0x133b8
   10bbf:	e8 89 26 00 00       	call   1324d <log_printf>
   10bc4:	83 c4 10             	add    $0x10,%esp
            addr_free_page(&paddr_alloc, vaddr, i + 1);
   10bc7:	8b 45 f0             	mov    -0x10(%ebp),%eax
   10bca:	83 c0 01             	add    $0x1,%eax
   10bcd:	83 ec 04             	sub    $0x4,%esp
   10bd0:	50                   	push   %eax
   10bd1:	ff 75 0c             	pushl  0xc(%ebp)
   10bd4:	68 00 50 01 00       	push   $0x15000
   10bd9:	e8 8a f8 ff ff       	call   10468 <addr_free_page>
   10bde:	83 c4 10             	add    $0x10,%esp
            return -1;
   10be1:	b8 ff ff ff ff       	mov    $0xffffffff,%eax
   10be6:	eb 1c                	jmp    10c04 <memory_alloc_for_page_dir+0xe7>
        }

        curr_vaddr += MEM_PAGE_SIZE;
   10be8:	81 45 f4 00 10 00 00 	addl   $0x1000,-0xc(%ebp)
    for (int i = 0; i < page_count; i++) {
   10bef:	83 45 f0 01          	addl   $0x1,-0x10(%ebp)
   10bf3:	8b 45 f0             	mov    -0x10(%ebp),%eax
   10bf6:	3b 45 ec             	cmp    -0x14(%ebp),%eax
   10bf9:	0f 8c 5f ff ff ff    	jl     10b5e <memory_alloc_for_page_dir+0x41>
    }

    return 0;
   10bff:	b8 00 00 00 00       	mov    $0x0,%eax
}
   10c04:	c9                   	leave  
   10c05:	c3                   	ret    

00010c06 <memory_alloc_page_for>:

/**
 * @brief 为指定的虚拟地址空间分配多页内存
 */
int memory_alloc_page_for (uint32_t addr, uint32_t size, int perm) {
   10c06:	55                   	push   %ebp
   10c07:	89 e5                	mov    %esp,%ebp
   10c09:	83 ec 08             	sub    $0x8,%esp
    return memory_alloc_for_page_dir(task_current()->tss.cr3, addr, size, perm);
   10c0c:	e8 8f 08 00 00       	call   114a0 <task_current>
   10c11:	8b 40 60             	mov    0x60(%eax),%eax
   10c14:	ff 75 10             	pushl  0x10(%ebp)
   10c17:	ff 75 0c             	pushl  0xc(%ebp)
   10c1a:	ff 75 08             	pushl  0x8(%ebp)
   10c1d:	50                   	push   %eax
   10c1e:	e8 fa fe ff ff       	call   10b1d <memory_alloc_for_page_dir>
   10c23:	83 c4 10             	add    $0x10,%esp
}
   10c26:	c9                   	leave  
   10c27:	c3                   	ret    

00010c28 <memory_alloc_page>:

/**
 * @brief 分配一页内存
 * 主要用于内核空间内存的分配，不用于进程内存空间
 */
uint32_t memory_alloc_page (void) {
   10c28:	55                   	push   %ebp
   10c29:	89 e5                	mov    %esp,%ebp
   10c2b:	83 ec 08             	sub    $0x8,%esp
    // 内核空间虚拟地址与物理地址相同
    return addr_alloc_page(&paddr_alloc, 1);
   10c2e:	83 ec 08             	sub    $0x8,%esp
   10c31:	6a 01                	push   $0x1
   10c33:	68 00 50 01 00       	push   $0x15000
   10c38:	e8 c4 f7 ff ff       	call   10401 <addr_alloc_page>
   10c3d:	83 c4 10             	add    $0x10,%esp
}
   10c40:	c9                   	leave  
   10c41:	c3                   	ret    

00010c42 <memory_free_page>:

/**
 * @brief 释放一页内存
 */
void memory_free_page (uint32_t addr) {
   10c42:	55                   	push   %ebp
   10c43:	89 e5                	mov    %esp,%ebp
   10c45:	83 ec 18             	sub    $0x18,%esp
    if (addr < MEMORY_TASK_BASE) {
   10c48:	8b 45 08             	mov    0x8(%ebp),%eax
   10c4b:	85 c0                	test   %eax,%eax
   10c4d:	78 17                	js     10c66 <memory_free_page+0x24>
        // 内核空间，直接释放
        addr_free_page(&paddr_alloc, addr, 1);
   10c4f:	83 ec 04             	sub    $0x4,%esp
   10c52:	6a 01                	push   $0x1
   10c54:	ff 75 08             	pushl  0x8(%ebp)
   10c57:	68 00 50 01 00       	push   $0x15000
   10c5c:	e8 07 f8 ff ff       	call   10468 <addr_free_page>
   10c61:	83 c4 10             	add    $0x10,%esp
        addr_free_page(&paddr_alloc, pte_paddr(pte), 1);

        // 释放页表
        pte->v = 0;
    }
}
   10c64:	eb 72                	jmp    10cd8 <memory_free_page+0x96>
        pte_t * pte = find_pte(current_page_dir(), addr, 0);
   10c66:	e8 2e f7 ff ff       	call   10399 <current_page_dir>
   10c6b:	83 ec 04             	sub    $0x4,%esp
   10c6e:	6a 00                	push   $0x0
   10c70:	ff 75 08             	pushl  0x8(%ebp)
   10c73:	50                   	push   %eax
   10c74:	e8 f3 f8 ff ff       	call   1056c <find_pte>
   10c79:	83 c4 10             	add    $0x10,%esp
   10c7c:	89 45 f4             	mov    %eax,-0xc(%ebp)
        ASSERT((pte == (pte_t *)0) && pte->present);
   10c7f:	83 7d f4 00          	cmpl   $0x0,-0xc(%ebp)
   10c83:	75 0d                	jne    10c92 <memory_free_page+0x50>
   10c85:	8b 45 f4             	mov    -0xc(%ebp),%eax
   10c88:	0f b6 00             	movzbl (%eax),%eax
   10c8b:	83 e0 01             	and    $0x1,%eax
   10c8e:	84 c0                	test   %al,%al
   10c90:	75 1c                	jne    10cae <memory_free_page+0x6c>
   10c92:	68 dc 33 01 00       	push   $0x133dc
   10c97:	68 ac 34 01 00       	push   $0x134ac
   10c9c:	68 88 01 00 00       	push   $0x188
   10ca1:	68 60 33 01 00       	push   $0x13360
   10ca6:	e8 b0 22 00 00       	call   12f5b <panic>
   10cab:	83 c4 10             	add    $0x10,%esp
        addr_free_page(&paddr_alloc, pte_paddr(pte), 1);
   10cae:	83 ec 0c             	sub    $0xc,%esp
   10cb1:	ff 75 f4             	pushl  -0xc(%ebp)
   10cb4:	e8 99 f6 ff ff       	call   10352 <pte_paddr>
   10cb9:	83 c4 10             	add    $0x10,%esp
   10cbc:	83 ec 04             	sub    $0x4,%esp
   10cbf:	6a 01                	push   $0x1
   10cc1:	50                   	push   %eax
   10cc2:	68 00 50 01 00       	push   $0x15000
   10cc7:	e8 9c f7 ff ff       	call   10468 <addr_free_page>
   10ccc:	83 c4 10             	add    $0x10,%esp
        pte->v = 0;
   10ccf:	8b 45 f4             	mov    -0xc(%ebp),%eax
   10cd2:	c7 00 00 00 00 00    	movl   $0x0,(%eax)
}
   10cd8:	90                   	nop
   10cd9:	c9                   	leave  
   10cda:	c3                   	ret    

00010cdb <memory_init>:
 * @brief 初始化内存管理系统
 * 该函数的主要任务：
 * 1、初始化物理内存分配器：将所有物理内存管理起来. 在1MB内存中分配物理位图
 * 2、重新创建内核页表：原loader中创建的页表已经不再合适
 */
void memory_init (boot_info_t * boot_info) {
   10cdb:	55                   	push   %ebp
   10cdc:	89 e5                	mov    %esp,%ebp
   10cde:	83 ec 18             	sub    $0x18,%esp
    // 1MB内存空间起始，在链接脚本中定义
    extern uint8_t * mem_free_start;

    log_printf("mem init.");
   10ce1:	83 ec 0c             	sub    $0xc,%esp
   10ce4:	68 00 34 01 00       	push   $0x13400
   10ce9:	e8 5f 25 00 00       	call   1324d <log_printf>
   10cee:	83 c4 10             	add    $0x10,%esp
    show_mem_info(boot_info);
   10cf1:	83 ec 0c             	sub    $0xc,%esp
   10cf4:	ff 75 08             	pushl  0x8(%ebp)
   10cf7:	e8 ce f7 ff ff       	call   104ca <show_mem_info>
   10cfc:	83 c4 10             	add    $0x10,%esp

    // 在内核数据后面放物理页位图
    uint8_t * mem_free = (uint8_t *)&mem_free_start;   // 2022年-10-1 经同学反馈，发现这里有点bug，改了下
   10cff:	c7 45 f4 3c 12 02 00 	movl   $0x2123c,-0xc(%ebp)

    // 计算1MB以上空间的空闲内存容量，并对齐的页边界
    uint32_t mem_up1MB_free = total_mem_size(boot_info) - MEM_EXT_START;
   10d06:	83 ec 0c             	sub    $0xc,%esp
   10d09:	ff 75 08             	pushl  0x8(%ebp)
   10d0c:	e8 1f f8 ff ff       	call   10530 <total_mem_size>
   10d11:	83 c4 10             	add    $0x10,%esp
   10d14:	2d 00 00 10 00       	sub    $0x100000,%eax
   10d19:	89 45 f0             	mov    %eax,-0x10(%ebp)
    mem_up1MB_free = down2(mem_up1MB_free, MEM_PAGE_SIZE);   // 对齐到4KB页
   10d1c:	83 ec 08             	sub    $0x8,%esp
   10d1f:	68 00 10 00 00       	push   $0x1000
   10d24:	ff 75 f0             	pushl  -0x10(%ebp)
   10d27:	e8 c2 f5 ff ff       	call   102ee <down2>
   10d2c:	83 c4 10             	add    $0x10,%esp
   10d2f:	89 45 f0             	mov    %eax,-0x10(%ebp)
    log_printf("Free memory: 0x%x, size: 0x%x", MEM_EXT_START, mem_up1MB_free);
   10d32:	83 ec 04             	sub    $0x4,%esp
   10d35:	ff 75 f0             	pushl  -0x10(%ebp)
   10d38:	68 00 00 10 00       	push   $0x100000
   10d3d:	68 0a 34 01 00       	push   $0x1340a
   10d42:	e8 06 25 00 00       	call   1324d <log_printf>
   10d47:	83 c4 10             	add    $0x10,%esp

    // 4GB大小需要总共4*1024*1024*1024/4096/8=128KB的位图, 使用低1MB的RAM空间中足够
    // 该部分的内存仅跟在mem_free_start开始放置
    addr_alloc_init(&paddr_alloc, mem_free, MEM_EXT_START, mem_up1MB_free, MEM_PAGE_SIZE);
   10d4a:	83 ec 0c             	sub    $0xc,%esp
   10d4d:	68 00 10 00 00       	push   $0x1000
   10d52:	ff 75 f0             	pushl  -0x10(%ebp)
   10d55:	68 00 00 10 00       	push   $0x100000
   10d5a:	ff 75 f4             	pushl  -0xc(%ebp)
   10d5d:	68 00 50 01 00       	push   $0x15000
   10d62:	e8 42 f6 ff ff       	call   103a9 <addr_alloc_init>
   10d67:	83 c4 20             	add    $0x20,%esp
    mem_free += bitmap_byte_count(paddr_alloc.size / MEM_PAGE_SIZE);
   10d6a:	a1 24 50 01 00       	mov    0x15024,%eax
   10d6f:	c1 e8 0c             	shr    $0xc,%eax
   10d72:	83 ec 0c             	sub    $0xc,%esp
   10d75:	50                   	push   %eax
   10d76:	e8 15 1a 00 00       	call   12790 <bitmap_byte_count>
   10d7b:	83 c4 10             	add    $0x10,%esp
   10d7e:	01 45 f4             	add    %eax,-0xc(%ebp)

    // 到这里，mem_free应该比EBDA地址要小
    ASSERT(mem_free < (uint8_t *)MEM_EBDA_START);
   10d81:	81 7d f4 ff ff 07 00 	cmpl   $0x7ffff,-0xc(%ebp)
   10d88:	76 1c                	jbe    10da6 <memory_init+0xcb>
   10d8a:	68 28 34 01 00       	push   $0x13428
   10d8f:	68 c0 34 01 00       	push   $0x134c0
   10d94:	68 ad 01 00 00       	push   $0x1ad
   10d99:	68 60 33 01 00       	push   $0x13360
   10d9e:	e8 b8 21 00 00       	call   12f5b <panic>
   10da3:	83 c4 10             	add    $0x10,%esp

    // 创建内核页表并切换过去
    create_kernel_table();
   10da6:	e8 fd f8 ff ff       	call   106a8 <create_kernel_table>

    // 先切换到当前页表
    mmu_set_page_dir((uint32_t)kernel_page_dir);
   10dab:	b8 00 60 01 00       	mov    $0x16000,%eax
   10db0:	83 ec 0c             	sub    $0xc,%esp
   10db3:	50                   	push   %eax
   10db4:	e8 cf f5 ff ff       	call   10388 <mmu_set_page_dir>
   10db9:	83 c4 10             	add    $0x10,%esp
}
   10dbc:	90                   	nop
   10dbd:	c9                   	leave  
   10dbe:	c3                   	ret    

00010dbf <sys_sbrk>:

/**
 * @brief 调整堆的内存分配，返回堆之前的指针
 */
char * sys_sbrk(int incr) {
   10dbf:	55                   	push   %ebp
   10dc0:	89 e5                	mov    %esp,%ebp
   10dc2:	83 ec 38             	sub    $0x38,%esp
    task_t * task = task_current();
   10dc5:	e8 d6 06 00 00       	call   114a0 <task_current>
   10dca:	89 45 f0             	mov    %eax,-0x10(%ebp)
    char * pre_heap_end = (char * )task->heap_end;
   10dcd:	8b 45 f0             	mov    -0x10(%ebp),%eax
   10dd0:	8b 40 30             	mov    0x30(%eax),%eax
   10dd3:	89 45 ec             	mov    %eax,-0x14(%ebp)
    int pre_incr = incr;
   10dd6:	8b 45 08             	mov    0x8(%ebp),%eax
   10dd9:	89 45 e8             	mov    %eax,-0x18(%ebp)

    ASSERT(incr >= 0);
   10ddc:	83 7d 08 00          	cmpl   $0x0,0x8(%ebp)
   10de0:	79 1c                	jns    10dfe <sys_sbrk+0x3f>
   10de2:	68 4d 34 01 00       	push   $0x1344d
   10de7:	68 cc 34 01 00       	push   $0x134cc
   10dec:	68 be 01 00 00       	push   $0x1be
   10df1:	68 60 33 01 00       	push   $0x13360
   10df6:	e8 60 21 00 00       	call   12f5b <panic>
   10dfb:	83 c4 10             	add    $0x10,%esp

    // 如果地址为0，则返回有效的heap区域的顶端
    if (incr == 0) {
   10dfe:	83 7d 08 00          	cmpl   $0x0,0x8(%ebp)
   10e02:	75 1b                	jne    10e1f <sys_sbrk+0x60>
        log_printf("sbrk(0): end = 0x%x", pre_heap_end);
   10e04:	83 ec 08             	sub    $0x8,%esp
   10e07:	ff 75 ec             	pushl  -0x14(%ebp)
   10e0a:	68 57 34 01 00       	push   $0x13457
   10e0f:	e8 39 24 00 00       	call   1324d <log_printf>
   10e14:	83 c4 10             	add    $0x10,%esp
        return pre_heap_end;
   10e17:	8b 45 ec             	mov    -0x14(%ebp),%eax
   10e1a:	e9 aa 00 00 00       	jmp    10ec9 <sys_sbrk+0x10a>
    } 
    
    uint32_t start = task->heap_end;
   10e1f:	8b 45 f0             	mov    -0x10(%ebp),%eax
   10e22:	8b 40 30             	mov    0x30(%eax),%eax
   10e25:	89 45 f4             	mov    %eax,-0xc(%ebp)
    uint32_t end = start + incr;
   10e28:	8b 55 08             	mov    0x8(%ebp),%edx
   10e2b:	8b 45 f4             	mov    -0xc(%ebp),%eax
   10e2e:	01 d0                	add    %edx,%eax
   10e30:	89 45 e4             	mov    %eax,-0x1c(%ebp)

    // 起始偏移非0
    int start_offset = start % MEM_PAGE_SIZE;
   10e33:	8b 45 f4             	mov    -0xc(%ebp),%eax
   10e36:	25 ff 0f 00 00       	and    $0xfff,%eax
   10e3b:	89 45 e0             	mov    %eax,-0x20(%ebp)
    if (start_offset) {
   10e3e:	83 7d e0 00          	cmpl   $0x0,-0x20(%ebp)
   10e42:	74 37                	je     10e7b <sys_sbrk+0xbc>
        // 不超过1页，只调整
        if (start_offset + incr <= MEM_PAGE_SIZE) {
   10e44:	8b 55 e0             	mov    -0x20(%ebp),%edx
   10e47:	8b 45 08             	mov    0x8(%ebp),%eax
   10e4a:	01 d0                	add    %edx,%eax
   10e4c:	3d 00 10 00 00       	cmp    $0x1000,%eax
   10e51:	7f 0e                	jg     10e61 <sys_sbrk+0xa2>
            task->heap_end = end;
   10e53:	8b 45 f0             	mov    -0x10(%ebp),%eax
   10e56:	8b 55 e4             	mov    -0x1c(%ebp),%edx
   10e59:	89 50 30             	mov    %edx,0x30(%eax)
            return pre_heap_end;
   10e5c:	8b 45 ec             	mov    -0x14(%ebp),%eax
   10e5f:	eb 68                	jmp    10ec9 <sys_sbrk+0x10a>
        } else {
            // 超过1页，先只调本页的
            uint32_t curr_size = MEM_PAGE_SIZE - start_offset;
   10e61:	b8 00 10 00 00       	mov    $0x1000,%eax
   10e66:	2b 45 e0             	sub    -0x20(%ebp),%eax
   10e69:	89 45 dc             	mov    %eax,-0x24(%ebp)
            start += curr_size;
   10e6c:	8b 45 dc             	mov    -0x24(%ebp),%eax
   10e6f:	01 45 f4             	add    %eax,-0xc(%ebp)
            incr -= curr_size;
   10e72:	8b 45 08             	mov    0x8(%ebp),%eax
   10e75:	2b 45 dc             	sub    -0x24(%ebp),%eax
   10e78:	89 45 08             	mov    %eax,0x8(%ebp)
        }
    }

    // 处理其余的，起始对齐的页边界的
    if (incr) {
   10e7b:	83 7d 08 00          	cmpl   $0x0,0x8(%ebp)
   10e7f:	74 3c                	je     10ebd <sys_sbrk+0xfe>
        uint32_t curr_size = end - start;
   10e81:	8b 45 e4             	mov    -0x1c(%ebp),%eax
   10e84:	2b 45 f4             	sub    -0xc(%ebp),%eax
   10e87:	89 45 d8             	mov    %eax,-0x28(%ebp)
        int err = memory_alloc_page_for(start, curr_size, PTE_P | PTE_U | PTE_W);
   10e8a:	83 ec 04             	sub    $0x4,%esp
   10e8d:	6a 07                	push   $0x7
   10e8f:	ff 75 d8             	pushl  -0x28(%ebp)
   10e92:	ff 75 f4             	pushl  -0xc(%ebp)
   10e95:	e8 6c fd ff ff       	call   10c06 <memory_alloc_page_for>
   10e9a:	83 c4 10             	add    $0x10,%esp
   10e9d:	89 45 d4             	mov    %eax,-0x2c(%ebp)
        if (err < 0) {
   10ea0:	83 7d d4 00          	cmpl   $0x0,-0x2c(%ebp)
   10ea4:	79 17                	jns    10ebd <sys_sbrk+0xfe>
            log_printf("sbrk: alloc mem failed.");
   10ea6:	83 ec 0c             	sub    $0xc,%esp
   10ea9:	68 6b 34 01 00       	push   $0x1346b
   10eae:	e8 9a 23 00 00       	call   1324d <log_printf>
   10eb3:	83 c4 10             	add    $0x10,%esp
            return (char *)-1;
   10eb6:	b8 ff ff ff ff       	mov    $0xffffffff,%eax
   10ebb:	eb 0c                	jmp    10ec9 <sys_sbrk+0x10a>
        }
    }

    //log_printf("sbrk(%d): end = 0x%x", pre_incr, end);
    task->heap_end = end;
   10ebd:	8b 45 f0             	mov    -0x10(%ebp),%eax
   10ec0:	8b 55 e4             	mov    -0x1c(%ebp),%edx
   10ec3:	89 50 30             	mov    %edx,0x30(%eax)
    return (char * )pre_heap_end;        
   10ec6:	8b 45 ec             	mov    -0x14(%ebp),%eax
}
   10ec9:	c9                   	leave  
   10eca:	c3                   	ret    

00010ecb <write_cr3>:
static inline void write_cr3(uint32_t v) {
   10ecb:	55                   	push   %ebp
   10ecc:	89 e5                	mov    %esp,%ebp
    __asm__ __volatile__("mov %[v], %%cr3"::[v]"r"(v));
   10ece:	8b 45 08             	mov    0x8(%ebp),%eax
   10ed1:	0f 22 d8             	mov    %eax,%cr3
}
   10ed4:	90                   	nop
   10ed5:	5d                   	pop    %ebp
   10ed6:	c3                   	ret    

00010ed7 <hlt>:
	idt.limit = size - 1;

	__asm__ __volatile__("lidt %0"::"m"(idt));
}

static inline void hlt(void) {
   10ed7:	55                   	push   %ebp
   10ed8:	89 e5                	mov    %esp,%ebp
    __asm__ __volatile__("hlt");
   10eda:	f4                   	hlt    
}
   10edb:	90                   	nop
   10edc:	5d                   	pop    %ebp
   10edd:	c3                   	ret    

00010ede <write_tr>:

static inline void write_tr (uint32_t tss_selector) {
   10ede:	55                   	push   %ebp
   10edf:	89 e5                	mov    %esp,%ebp
    __asm__ __volatile__("ltr %%ax"::"a"(tss_selector));
   10ee1:	8b 45 08             	mov    0x8(%ebp),%eax
   10ee4:	0f 00 d8             	ltr    %ax
}
   10ee7:	90                   	nop
   10ee8:	5d                   	pop    %ebp
   10ee9:	c3                   	ret    

00010eea <list_node_init>:

/**
 * 头结点的初始化
 * @param node 待初始化的结果
 */
static inline void list_node_init(list_node_t *node) {
   10eea:	55                   	push   %ebp
   10eeb:	89 e5                	mov    %esp,%ebp
    node->pre = node->next = (list_node_t *)0;
   10eed:	8b 45 08             	mov    0x8(%ebp),%eax
   10ef0:	c7 40 04 00 00 00 00 	movl   $0x0,0x4(%eax)
   10ef7:	8b 45 08             	mov    0x8(%ebp),%eax
   10efa:	8b 50 04             	mov    0x4(%eax),%edx
   10efd:	8b 45 08             	mov    0x8(%ebp),%eax
   10f00:	89 10                	mov    %edx,(%eax)
}
   10f02:	90                   	nop
   10f03:	5d                   	pop    %ebp
   10f04:	c3                   	ret    

00010f05 <list_node_next>:
/**
 * 获取结点的前一结点
 * @param node 查询的结点
 * @return 后继结点
 */
static inline list_node_t * list_node_next(list_node_t *node) {
   10f05:	55                   	push   %ebp
   10f06:	89 e5                	mov    %esp,%ebp
    return node->next;
   10f08:	8b 45 08             	mov    0x8(%ebp),%eax
   10f0b:	8b 40 04             	mov    0x4(%eax),%eax
}
   10f0e:	5d                   	pop    %ebp
   10f0f:	c3                   	ret    

00010f10 <list_count>:
/**
 * 获取链表的结点数量
 * @param list 查询的链表
 * @return 结果的数据
 */
static inline int list_count(list_t *list) {
   10f10:	55                   	push   %ebp
   10f11:	89 e5                	mov    %esp,%ebp
    return list->count;
   10f13:	8b 45 08             	mov    0x8(%ebp),%eax
   10f16:	8b 40 08             	mov    0x8(%eax),%eax
}
   10f19:	5d                   	pop    %ebp
   10f1a:	c3                   	ret    

00010f1b <list_first>:
/**
 * 获取指定链表的第一个表项
 * @param list 查询的链表
 * @return 第一个表项
 */
static inline list_node_t* list_first(list_t *list) {
   10f1b:	55                   	push   %ebp
   10f1c:	89 e5                	mov    %esp,%ebp
    return list->first;
   10f1e:	8b 45 08             	mov    0x8(%ebp),%eax
   10f21:	8b 00                	mov    (%eax),%eax
}
   10f23:	5d                   	pop    %ebp
   10f24:	c3                   	ret    

00010f25 <mmu_set_page_dir>:
static inline void mmu_set_page_dir (uint32_t paddr) {
   10f25:	55                   	push   %ebp
   10f26:	89 e5                	mov    %esp,%ebp
    write_cr3(paddr);
   10f28:	ff 75 08             	pushl  0x8(%ebp)
   10f2b:	e8 9b ff ff ff       	call   10ecb <write_cr3>
   10f30:	83 c4 04             	add    $0x4,%esp
}
   10f33:	90                   	nop
   10f34:	c9                   	leave  
   10f35:	c3                   	ret    

00010f36 <tss_init>:
#include "comm/elf.h"
static task_manager_t task_manager;     // 任务管理器
static uint32_t idle_task_stack[IDLE_STACK_SIZE];	// 空闲任务堆栈
static task_t task_table[TASK_NR];      // 用户进程表

static int tss_init (task_t * task,int flag, uint32_t entry, uint32_t esp){
   10f36:	55                   	push   %ebp
   10f37:	89 e5                	mov    %esp,%ebp
   10f39:	83 ec 28             	sub    $0x28,%esp
    int tss_sel = gdt_alloc_desc();
   10f3c:	e8 51 09 00 00       	call   11892 <gdt_alloc_desc>
   10f41:	89 45 ec             	mov    %eax,-0x14(%ebp)
    if (tss_sel < 0) {
   10f44:	83 7d ec 00          	cmpl   $0x0,-0x14(%ebp)
   10f48:	79 1a                	jns    10f64 <tss_init+0x2e>
        log_printf("alloc tss failed.\n");
   10f4a:	83 ec 0c             	sub    $0xc,%esp
   10f4d:	68 d8 34 01 00       	push   $0x134d8
   10f52:	e8 f6 22 00 00       	call   1324d <log_printf>
   10f57:	83 c4 10             	add    $0x10,%esp
        return -1;
   10f5a:	b8 ff ff ff ff       	mov    $0xffffffff,%eax
   10f5f:	e9 74 01 00 00       	jmp    110d8 <tss_init+0x1a2>
    }

    segment_desc_set(tss_sel, (uint32_t)&task->tss, sizeof(tss_t),
   10f64:	8b 45 08             	mov    0x8(%ebp),%eax
   10f67:	83 c0 44             	add    $0x44,%eax
   10f6a:	68 89 00 00 00       	push   $0x89
   10f6f:	6a 68                	push   $0x68
   10f71:	50                   	push   %eax
   10f72:	ff 75 ec             	pushl  -0x14(%ebp)
   10f75:	e8 e1 07 00 00       	call   1175b <segment_desc_set>
   10f7a:	83 c4 10             	add    $0x10,%esp
            SEG_P_PRESENT | SEG_DPL0 | SEG_TYPE_TSS);

    // tss段初始化
    kernel_memset(&task->tss, 0, sizeof(tss_t));
   10f7d:	8b 45 08             	mov    0x8(%ebp),%eax
   10f80:	83 c0 44             	add    $0x44,%eax
   10f83:	83 ec 04             	sub    $0x4,%esp
   10f86:	6a 68                	push   $0x68
   10f88:	6a 00                	push   $0x0
   10f8a:	50                   	push   %eax
   10f8b:	e8 7e 1c 00 00       	call   12c0e <kernel_memset>
   10f90:	83 c4 10             	add    $0x10,%esp

    // 分配内核栈，得到的是物理地址
    uint32_t kernel_stack = memory_alloc_page();
   10f93:	e8 90 fc ff ff       	call   10c28 <memory_alloc_page>
   10f98:	89 45 e8             	mov    %eax,-0x18(%ebp)
    if (kernel_stack == 0) {
   10f9b:	83 7d e8 00          	cmpl   $0x0,-0x18(%ebp)
   10f9f:	0f 84 08 01 00 00    	je     110ad <tss_init+0x177>
        goto tss_init_failed;
    }

    // 根据不同的权限选择不同的访问选择子
    int code_sel, data_sel;
    if (flag & TASK_FLAG_SYSTEM) {
   10fa5:	8b 45 0c             	mov    0xc(%ebp),%eax
   10fa8:	83 e0 01             	and    $0x1,%eax
   10fab:	85 c0                	test   %eax,%eax
   10fad:	74 10                	je     10fbf <tss_init+0x89>
        code_sel = KERNEL_SELECTOR_CS;
   10faf:	c7 45 f4 08 00 00 00 	movl   $0x8,-0xc(%ebp)
        data_sel = KERNEL_SELECTOR_DS;
   10fb6:	c7 45 f0 10 00 00 00 	movl   $0x10,-0x10(%ebp)
   10fbd:	eb 16                	jmp    10fd5 <tss_init+0x9f>
    } else {
        // 注意加了RP3,不然将产生段保护错误
        code_sel = task_manager.app_code_sel | SEG_CPL3;
   10fbf:	a1 b8 71 01 00       	mov    0x171b8,%eax
   10fc4:	83 c8 03             	or     $0x3,%eax
   10fc7:	89 45 f4             	mov    %eax,-0xc(%ebp)
        data_sel = task_manager.app_data_sel | SEG_CPL3;
   10fca:	a1 bc 71 01 00       	mov    0x171bc,%eax
   10fcf:	83 c8 03             	or     $0x3,%eax
   10fd2:	89 45 f0             	mov    %eax,-0x10(%ebp)
    }

    task->tss.eip = entry;
   10fd5:	8b 45 08             	mov    0x8(%ebp),%eax
   10fd8:	8b 55 10             	mov    0x10(%ebp),%edx
   10fdb:	89 50 64             	mov    %edx,0x64(%eax)
    task->tss.esp = esp;  // 未指定栈则用内核栈，即运行在特权级0的进程
   10fde:	8b 45 08             	mov    0x8(%ebp),%eax
   10fe1:	8b 55 14             	mov    0x14(%ebp),%edx
   10fe4:	89 50 7c             	mov    %edx,0x7c(%eax)
    task->tss.esp0 = kernel_stack + MEM_PAGE_SIZE;
   10fe7:	8b 45 e8             	mov    -0x18(%ebp),%eax
   10fea:	8d 90 00 10 00 00    	lea    0x1000(%eax),%edx
   10ff0:	8b 45 08             	mov    0x8(%ebp),%eax
   10ff3:	89 50 48             	mov    %edx,0x48(%eax)
    task->tss.ss0 = KERNEL_SELECTOR_DS;
   10ff6:	8b 45 08             	mov    0x8(%ebp),%eax
   10ff9:	c7 40 4c 10 00 00 00 	movl   $0x10,0x4c(%eax)
    task->tss.eip = entry;
   11000:	8b 45 08             	mov    0x8(%ebp),%eax
   11003:	8b 55 10             	mov    0x10(%ebp),%edx
   11006:	89 50 64             	mov    %edx,0x64(%eax)
    task->tss.eflags = EFLAGS_DEFAULT| EFLAGS_IF;
   11009:	8b 45 08             	mov    0x8(%ebp),%eax
   1100c:	c7 40 68 02 02 00 00 	movl   $0x202,0x68(%eax)
    task->tss.es = task->tss.ss = task->tss.ds = task->tss.fs 
            = task->tss.gs = data_sel;   // 全部采用同一数据段
   11013:	8b 55 f0             	mov    -0x10(%ebp),%edx
   11016:	8b 45 08             	mov    0x8(%ebp),%eax
   11019:	89 90 a0 00 00 00    	mov    %edx,0xa0(%eax)
   1101f:	8b 45 08             	mov    0x8(%ebp),%eax
   11022:	8b 90 a0 00 00 00    	mov    0xa0(%eax),%edx
   11028:	8b 45 08             	mov    0x8(%ebp),%eax
   1102b:	89 90 9c 00 00 00    	mov    %edx,0x9c(%eax)
    task->tss.es = task->tss.ss = task->tss.ds = task->tss.fs 
   11031:	8b 45 08             	mov    0x8(%ebp),%eax
   11034:	8b 90 9c 00 00 00    	mov    0x9c(%eax),%edx
   1103a:	8b 45 08             	mov    0x8(%ebp),%eax
   1103d:	89 90 98 00 00 00    	mov    %edx,0x98(%eax)
   11043:	8b 45 08             	mov    0x8(%ebp),%eax
   11046:	8b 90 98 00 00 00    	mov    0x98(%eax),%edx
   1104c:	8b 45 08             	mov    0x8(%ebp),%eax
   1104f:	89 90 94 00 00 00    	mov    %edx,0x94(%eax)
   11055:	8b 45 08             	mov    0x8(%ebp),%eax
   11058:	8b 90 94 00 00 00    	mov    0x94(%eax),%edx
   1105e:	8b 45 08             	mov    0x8(%ebp),%eax
   11061:	89 90 8c 00 00 00    	mov    %edx,0x8c(%eax)
    task->tss.cs = code_sel; 
   11067:	8b 55 f4             	mov    -0xc(%ebp),%edx
   1106a:	8b 45 08             	mov    0x8(%ebp),%eax
   1106d:	89 90 90 00 00 00    	mov    %edx,0x90(%eax)
    task->tss.iomap = 0;
   11073:	8b 45 08             	mov    0x8(%ebp),%eax
   11076:	c7 80 a8 00 00 00 00 	movl   $0x0,0xa8(%eax)
   1107d:	00 00 00 

    // 页表初始化
    uint32_t page_dir = memory_create_uvm();
   11080:	e8 e6 f6 ff ff       	call   1076b <memory_create_uvm>
   11085:	89 45 e4             	mov    %eax,-0x1c(%ebp)
    if (page_dir == 0) {
   11088:	83 7d e4 00          	cmpl   $0x0,-0x1c(%ebp)
   1108c:	74 22                	je     110b0 <tss_init+0x17a>
        goto tss_init_failed;
    }
    task->tss.cr3 = page_dir;
   1108e:	8b 45 08             	mov    0x8(%ebp),%eax
   11091:	8b 55 e4             	mov    -0x1c(%ebp),%edx
   11094:	89 50 60             	mov    %edx,0x60(%eax)

    task->tss_sel = tss_sel;
   11097:	8b 45 ec             	mov    -0x14(%ebp),%eax
   1109a:	89 c2                	mov    %eax,%edx
   1109c:	8b 45 08             	mov    0x8(%ebp),%eax
   1109f:	66 89 90 ac 00 00 00 	mov    %dx,0xac(%eax)
    return 0;
   110a6:	b8 00 00 00 00       	mov    $0x0,%eax
   110ab:	eb 2b                	jmp    110d8 <tss_init+0x1a2>
        goto tss_init_failed;
   110ad:	90                   	nop
   110ae:	eb 01                	jmp    110b1 <tss_init+0x17b>
        goto tss_init_failed;
   110b0:	90                   	nop
tss_init_failed:
    gdt_free_sel(tss_sel);
   110b1:	83 ec 0c             	sub    $0xc,%esp
   110b4:	ff 75 ec             	pushl  -0x14(%ebp)
   110b7:	e8 80 08 00 00       	call   1193c <gdt_free_sel>
   110bc:	83 c4 10             	add    $0x10,%esp

    if (kernel_stack) {
   110bf:	83 7d e8 00          	cmpl   $0x0,-0x18(%ebp)
   110c3:	74 0e                	je     110d3 <tss_init+0x19d>
        memory_free_page(kernel_stack);
   110c5:	83 ec 0c             	sub    $0xc,%esp
   110c8:	ff 75 e8             	pushl  -0x18(%ebp)
   110cb:	e8 72 fb ff ff       	call   10c42 <memory_free_page>
   110d0:	83 c4 10             	add    $0x10,%esp
    }
    return -1;
   110d3:	b8 ff ff ff ff       	mov    $0xffffffff,%eax
}
   110d8:	c9                   	leave  
   110d9:	c3                   	ret    

000110da <task_next_run>:
/**
 * @brief 获取下一将要运行的任务
 */
static task_t * task_next_run (void) {
   110da:	55                   	push   %ebp
   110db:	89 e5                	mov    %esp,%ebp
   110dd:	83 ec 10             	sub    $0x10,%esp
    // 如果没有任务，则运行空闲任务
    if (list_count(&task_manager.ready_list) == 0) {
   110e0:	68 04 70 01 00       	push   $0x17004
   110e5:	e8 26 fe ff ff       	call   10f10 <list_count>
   110ea:	83 c4 04             	add    $0x4,%esp
   110ed:	85 c0                	test   %eax,%eax
   110ef:	75 07                	jne    110f8 <task_next_run+0x1e>
        return &task_manager.idle_task;
   110f1:	b8 f0 70 01 00       	mov    $0x170f0,%eax
   110f6:	eb 25                	jmp    1111d <task_next_run+0x43>
    }
    
    // 普通任务
    list_node_t * task_node = list_first(&task_manager.ready_list);
   110f8:	68 04 70 01 00       	push   $0x17004
   110fd:	e8 19 fe ff ff       	call   10f1b <list_first>
   11102:	83 c4 04             	add    $0x4,%esp
   11105:	89 45 fc             	mov    %eax,-0x4(%ebp)
    return list_node_parent(task_node, task_t, run_node);
   11108:	83 7d fc 00          	cmpl   $0x0,-0x4(%ebp)
   1110c:	74 0a                	je     11118 <task_next_run+0x3e>
   1110e:	8b 45 fc             	mov    -0x4(%ebp),%eax
   11111:	2d b0 00 00 00       	sub    $0xb0,%eax
   11116:	eb 05                	jmp    1111d <task_next_run+0x43>
   11118:	b8 00 00 00 00       	mov    $0x0,%eax
}
   1111d:	c9                   	leave  
   1111e:	c3                   	ret    

0001111f <task_init>:

int task_init (task_t *task, const char* name,int flag, uint32_t entry, uint32_t esp){
   1111f:	55                   	push   %ebp
   11120:	89 e5                	mov    %esp,%ebp
   11122:	83 ec 18             	sub    $0x18,%esp
    ASSERT(task != (task_t *)0);
   11125:	83 7d 08 00          	cmpl   $0x0,0x8(%ebp)
   11129:	75 19                	jne    11144 <task_init+0x25>
   1112b:	68 eb 34 01 00       	push   $0x134eb
   11130:	68 58 35 01 00       	push   $0x13558
   11135:	6a 59                	push   $0x59
   11137:	68 00 35 01 00       	push   $0x13500
   1113c:	e8 1a 1e 00 00       	call   12f5b <panic>
   11141:	83 c4 10             	add    $0x10,%esp

    tss_init(task,flag, entry, esp);
   11144:	ff 75 18             	pushl  0x18(%ebp)
   11147:	ff 75 14             	pushl  0x14(%ebp)
   1114a:	ff 75 10             	pushl  0x10(%ebp)
   1114d:	ff 75 08             	pushl  0x8(%ebp)
   11150:	e8 e1 fd ff ff       	call   10f36 <tss_init>
   11155:	83 c4 10             	add    $0x10,%esp

    kernel_strncpy(task->name, name, TASK_NAME_SIZE);
   11158:	8b 45 08             	mov    0x8(%ebp),%eax
   1115b:	83 c0 04             	add    $0x4,%eax
   1115e:	83 ec 04             	sub    $0x4,%esp
   11161:	6a 20                	push   $0x20
   11163:	ff 75 0c             	pushl  0xc(%ebp)
   11166:	50                   	push   %eax
   11167:	e8 2a 19 00 00       	call   12a96 <kernel_strncpy>
   1116c:	83 c4 10             	add    $0x10,%esp
    task->state = TASK_CREATED;
   1116f:	8b 45 08             	mov    0x8(%ebp),%eax
   11172:	c7 00 00 00 00 00    	movl   $0x0,(%eax)
    task->sleep_ticks = 0;
   11178:	8b 45 08             	mov    0x8(%ebp),%eax
   1117b:	c7 40 38 00 00 00 00 	movl   $0x0,0x38(%eax)
    task->time_ticks = TASK_TIME_SLICE_DEFAULT;
   11182:	8b 45 08             	mov    0x8(%ebp),%eax
   11185:	c7 40 3c 0a 00 00 00 	movl   $0xa,0x3c(%eax)

    task->slice_ticks = task->time_ticks;
   1118c:	8b 45 08             	mov    0x8(%ebp),%eax
   1118f:	8b 50 3c             	mov    0x3c(%eax),%edx
   11192:	8b 45 08             	mov    0x8(%ebp),%eax
   11195:	89 50 40             	mov    %edx,0x40(%eax)

    list_node_init(&task->all_node);
   11198:	8b 45 08             	mov    0x8(%ebp),%eax
   1119b:	05 c0 00 00 00       	add    $0xc0,%eax
   111a0:	83 ec 0c             	sub    $0xc,%esp
   111a3:	50                   	push   %eax
   111a4:	e8 41 fd ff ff       	call   10eea <list_node_init>
   111a9:	83 c4 10             	add    $0x10,%esp
    list_node_init(&task->run_node);
   111ac:	8b 45 08             	mov    0x8(%ebp),%eax
   111af:	05 b0 00 00 00       	add    $0xb0,%eax
   111b4:	83 ec 0c             	sub    $0xc,%esp
   111b7:	50                   	push   %eax
   111b8:	e8 2d fd ff ff       	call   10eea <list_node_init>
   111bd:	83 c4 10             	add    $0x10,%esp
    list_node_init(&task->wait_node);
   111c0:	8b 45 08             	mov    0x8(%ebp),%eax
   111c3:	05 b8 00 00 00       	add    $0xb8,%eax
   111c8:	83 ec 0c             	sub    $0xc,%esp
   111cb:	50                   	push   %eax
   111cc:	e8 19 fd ff ff       	call   10eea <list_node_init>
   111d1:	83 c4 10             	add    $0x10,%esp
    irq_state_t state = irq_enter_protection();
   111d4:	e8 00 11 00 00       	call   122d9 <irq_enter_protection>
   111d9:	89 45 f4             	mov    %eax,-0xc(%ebp)
    task_set_ready(task);
   111dc:	83 ec 0c             	sub    $0xc,%esp
   111df:	ff 75 08             	pushl  0x8(%ebp)
   111e2:	e8 5a 02 00 00       	call   11441 <task_set_ready>
   111e7:	83 c4 10             	add    $0x10,%esp
    list_insert_last(&task_manager.task_list, &task->all_node);
   111ea:	8b 45 08             	mov    0x8(%ebp),%eax
   111ed:	05 c0 00 00 00       	add    $0xc0,%eax
   111f2:	83 ec 08             	sub    $0x8,%esp
   111f5:	50                   	push   %eax
   111f6:	68 10 70 01 00       	push   $0x17010
   111fb:	e8 28 1e 00 00       	call   13028 <list_insert_last>
   11200:	83 c4 10             	add    $0x10,%esp
    irq_leave_protection(state);
   11203:	83 ec 0c             	sub    $0xc,%esp
   11206:	ff 75 f4             	pushl  -0xc(%ebp)
   11209:	e8 e3 10 00 00       	call   122f1 <irq_leave_protection>
   1120e:	83 c4 10             	add    $0x10,%esp
    return 0;
   11211:	b8 00 00 00 00       	mov    $0x0,%eax
}
   11216:	c9                   	leave  
   11217:	c3                   	ret    

00011218 <task_switch_from_to>:
void simple_switch (uint32_t **from, uint32_t *to);

/**
 * @brief 切换至指定任务
 */
void task_switch_from_to (task_t * from, task_t * to) {
   11218:	55                   	push   %ebp
   11219:	89 e5                	mov    %esp,%ebp
   1121b:	83 ec 08             	sub    $0x8,%esp
    switch_to_tss(to->tss_sel);
   1121e:	8b 45 0c             	mov    0xc(%ebp),%eax
   11221:	0f b7 80 ac 00 00 00 	movzwl 0xac(%eax),%eax
   11228:	0f b7 c0             	movzwl %ax,%eax
   1122b:	83 ec 0c             	sub    $0xc,%esp
   1122e:	50                   	push   %eax
   1122f:	e8 d7 06 00 00       	call   1190b <switch_to_tss>
   11234:	83 c4 10             	add    $0x10,%esp
    //simple_switch(&from->stack, to->stack);
}
   11237:	90                   	nop
   11238:	c9                   	leave  
   11239:	c3                   	ret    

0001123a <task_first_init>:

void task_first_init (void){
   1123a:	55                   	push   %ebp
   1123b:	89 e5                	mov    %esp,%ebp
   1123d:	83 ec 18             	sub    $0x18,%esp

    // 以下获得的是bin文件在内存中的物理地址
    extern uint8_t s_first_task[], e_first_task[];

    // 分配的空间比实际存储的空间要大一些，多余的用于放置栈
    uint32_t copy_size = (uint32_t)(e_first_task - s_first_task);
   11240:	ba 3c 12 02 00       	mov    $0x2123c,%edx
   11245:	b8 04 12 02 00       	mov    $0x21204,%eax
   1124a:	29 c2                	sub    %eax,%edx
   1124c:	89 d0                	mov    %edx,%eax
   1124e:	89 45 f4             	mov    %eax,-0xc(%ebp)
    uint32_t alloc_size = 10 * MEM_PAGE_SIZE;
   11251:	c7 45 f0 00 a0 00 00 	movl   $0xa000,-0x10(%ebp)
    ASSERT(copy_size < alloc_size);
   11258:	8b 45 f4             	mov    -0xc(%ebp),%eax
   1125b:	3b 45 f0             	cmp    -0x10(%ebp),%eax
   1125e:	72 1c                	jb     1127c <task_first_init+0x42>
   11260:	68 2c 35 01 00       	push   $0x1352c
   11265:	68 64 35 01 00       	push   $0x13564
   1126a:	68 81 00 00 00       	push   $0x81
   1126f:	68 00 35 01 00       	push   $0x13500
   11274:	e8 e2 1c 00 00       	call   12f5b <panic>
   11279:	83 c4 10             	add    $0x10,%esp

    uint32_t first_start = (uint32_t)first_task_entry;
   1127c:	c7 45 ec 00 00 00 80 	movl   $0x80000000,-0x14(%ebp)

    // 第一个任务代码量小一些，好和栈放在1个页面呢
    // 这样就不要立即考虑还要给栈分配空间的问题
    task_init(&task_manager.first_task, "first task", 0, first_start, first_start + alloc_size);
   11283:	8b 55 ec             	mov    -0x14(%ebp),%edx
   11286:	8b 45 f0             	mov    -0x10(%ebp),%eax
   11289:	01 d0                	add    %edx,%eax
   1128b:	83 ec 0c             	sub    $0xc,%esp
   1128e:	50                   	push   %eax
   1128f:	ff 75 ec             	pushl  -0x14(%ebp)
   11292:	6a 00                	push   $0x0
   11294:	68 43 35 01 00       	push   $0x13543
   11299:	68 28 70 01 00       	push   $0x17028
   1129e:	e8 7c fe ff ff       	call   1111f <task_init>
   112a3:	83 c4 20             	add    $0x20,%esp
    task_manager.first_task.heap_start = (uint32_t)e_first_task;  // 这里不对
   112a6:	b8 3c 12 02 00       	mov    $0x2123c,%eax
   112ab:	a3 54 70 01 00       	mov    %eax,0x17054
    task_manager.first_task.heap_end = task_manager.first_task.heap_start;
   112b0:	a1 54 70 01 00       	mov    0x17054,%eax
   112b5:	a3 58 70 01 00       	mov    %eax,0x17058
    task_manager.curr_task = &task_manager.first_task;
   112ba:	c7 05 00 70 01 00 28 	movl   $0x17028,0x17000
   112c1:	70 01 00 

    // 更新页表地址为自己的
    mmu_set_page_dir(task_manager.first_task.tss.cr3);
   112c4:	a1 88 70 01 00       	mov    0x17088,%eax
   112c9:	83 ec 0c             	sub    $0xc,%esp
   112cc:	50                   	push   %eax
   112cd:	e8 53 fc ff ff       	call   10f25 <mmu_set_page_dir>
   112d2:	83 c4 10             	add    $0x10,%esp

    // 分配一页内存供代码存放使用，然后将代码复制过去
    memory_alloc_page_for(first_start,  alloc_size, PTE_P | PTE_W | PTE_U);
   112d5:	83 ec 04             	sub    $0x4,%esp
   112d8:	6a 07                	push   $0x7
   112da:	ff 75 f0             	pushl  -0x10(%ebp)
   112dd:	ff 75 ec             	pushl  -0x14(%ebp)
   112e0:	e8 21 f9 ff ff       	call   10c06 <memory_alloc_page_for>
   112e5:	83 c4 10             	add    $0x10,%esp
    kernel_memcpy((void *)first_start, (void *)&s_first_task, copy_size);
   112e8:	8b 55 f4             	mov    -0xc(%ebp),%edx
   112eb:	8b 45 ec             	mov    -0x14(%ebp),%eax
   112ee:	83 ec 04             	sub    $0x4,%esp
   112f1:	52                   	push   %edx
   112f2:	68 04 12 02 00       	push   $0x21204
   112f7:	50                   	push   %eax
   112f8:	e8 c2 18 00 00       	call   12bbf <kernel_memcpy>
   112fd:	83 c4 10             	add    $0x10,%esp

    // 启动进程
    task_start(&task_manager.first_task);
   11300:	83 ec 0c             	sub    $0xc,%esp
   11303:	68 28 70 01 00       	push   $0x17028
   11308:	e8 1c 00 00 00       	call   11329 <task_start>
   1130d:	83 c4 10             	add    $0x10,%esp

    // 写TR寄存器，指示当前运行的第一个任务
    write_tr(task_manager.first_task.tss_sel);
   11310:	0f b7 05 d4 70 01 00 	movzwl 0x170d4,%eax
   11317:	0f b7 c0             	movzwl %ax,%eax
   1131a:	83 ec 0c             	sub    $0xc,%esp
   1131d:	50                   	push   %eax
   1131e:	e8 bb fb ff ff       	call   10ede <write_tr>
   11323:	83 c4 10             	add    $0x10,%esp
}
   11326:	90                   	nop
   11327:	c9                   	leave  
   11328:	c3                   	ret    

00011329 <task_start>:
/**
 * @brief 启动任务
 */
void task_start(task_t * task) {
   11329:	55                   	push   %ebp
   1132a:	89 e5                	mov    %esp,%ebp
   1132c:	83 ec 18             	sub    $0x18,%esp
    irq_state_t state = irq_enter_protection();
   1132f:	e8 a5 0f 00 00       	call   122d9 <irq_enter_protection>
   11334:	89 45 f4             	mov    %eax,-0xc(%ebp)
    task_set_ready(task);
   11337:	83 ec 0c             	sub    $0xc,%esp
   1133a:	ff 75 08             	pushl  0x8(%ebp)
   1133d:	e8 ff 00 00 00       	call   11441 <task_set_ready>
   11342:	83 c4 10             	add    $0x10,%esp
    irq_leave_protection(state);
   11345:	83 ec 0c             	sub    $0xc,%esp
   11348:	ff 75 f4             	pushl  -0xc(%ebp)
   1134b:	e8 a1 0f 00 00       	call   122f1 <irq_leave_protection>
   11350:	83 c4 10             	add    $0x10,%esp
}
   11353:	90                   	nop
   11354:	c9                   	leave  
   11355:	c3                   	ret    

00011356 <task_first_task>:

task_t * task_first_task (void){
   11356:	55                   	push   %ebp
   11357:	89 e5                	mov    %esp,%ebp
    return &task_manager.first_task;
   11359:	b8 28 70 01 00       	mov    $0x17028,%eax
}
   1135e:	5d                   	pop    %ebp
   1135f:	c3                   	ret    

00011360 <idle_task_entry>:

static void idle_task_entry (void){
   11360:	55                   	push   %ebp
   11361:	89 e5                	mov    %esp,%ebp
    for(;;){
        hlt();
   11363:	e8 6f fb ff ff       	call   10ed7 <hlt>
   11368:	eb f9                	jmp    11363 <idle_task_entry+0x3>

0001136a <task_manager_init>:
    }
}

void task_manager_init (void){
   1136a:	55                   	push   %ebp
   1136b:	89 e5                	mov    %esp,%ebp
   1136d:	83 ec 18             	sub    $0x18,%esp
    kernel_memset(task_table, 0, sizeof(task_table));
   11370:	83 ec 04             	sub    $0x4,%esp
   11373:	68 00 64 00 00       	push   $0x6400
   11378:	6a 00                	push   $0x0
   1137a:	68 c0 81 01 00       	push   $0x181c0
   1137f:	e8 8a 18 00 00       	call   12c0e <kernel_memset>
   11384:	83 c4 10             	add    $0x10,%esp
    //mutex_init(&task_table_mutex);

    //数据段和代码段，使用DPL3，所有应用共用同一个
    //为调试方便，暂时使用DPL0
    int sel = gdt_alloc_desc();
   11387:	e8 06 05 00 00       	call   11892 <gdt_alloc_desc>
   1138c:	89 45 f4             	mov    %eax,-0xc(%ebp)
    segment_desc_set(sel, 0x00000000, 0xFFFFFFFF,
   1138f:	68 f2 40 00 00       	push   $0x40f2
   11394:	6a ff                	push   $0xffffffff
   11396:	6a 00                	push   $0x0
   11398:	ff 75 f4             	pushl  -0xc(%ebp)
   1139b:	e8 bb 03 00 00       	call   1175b <segment_desc_set>
   113a0:	83 c4 10             	add    $0x10,%esp
                     SEG_P_PRESENT | SEG_DPL3 | SEG_S_NORMAL |
                     SEG_TYPE_DATA | SEG_TYPE_RW | SEG_D);
    task_manager.app_data_sel = sel;
   113a3:	8b 45 f4             	mov    -0xc(%ebp),%eax
   113a6:	a3 bc 71 01 00       	mov    %eax,0x171bc

    sel = gdt_alloc_desc();
   113ab:	e8 e2 04 00 00       	call   11892 <gdt_alloc_desc>
   113b0:	89 45 f4             	mov    %eax,-0xc(%ebp)
    segment_desc_set(sel, 0x00000000, 0xFFFFFFFF,
   113b3:	68 fa 40 00 00       	push   $0x40fa
   113b8:	6a ff                	push   $0xffffffff
   113ba:	6a 00                	push   $0x0
   113bc:	ff 75 f4             	pushl  -0xc(%ebp)
   113bf:	e8 97 03 00 00       	call   1175b <segment_desc_set>
   113c4:	83 c4 10             	add    $0x10,%esp
                     SEG_P_PRESENT | SEG_DPL3 | SEG_S_NORMAL |
                     SEG_TYPE_CODE | SEG_TYPE_RW | SEG_D);
    task_manager.app_code_sel = sel;
   113c7:	8b 45 f4             	mov    -0xc(%ebp),%eax
   113ca:	a3 b8 71 01 00       	mov    %eax,0x171b8

    // 各队列初始化
    list_init(&task_manager.ready_list);
   113cf:	83 ec 0c             	sub    $0xc,%esp
   113d2:	68 04 70 01 00       	push   $0x17004
   113d7:	e8 c8 1b 00 00       	call   12fa4 <list_init>
   113dc:	83 c4 10             	add    $0x10,%esp
    list_init(&task_manager.task_list);
   113df:	83 ec 0c             	sub    $0xc,%esp
   113e2:	68 10 70 01 00       	push   $0x17010
   113e7:	e8 b8 1b 00 00       	call   12fa4 <list_init>
   113ec:	83 c4 10             	add    $0x10,%esp
    list_init(&task_manager.sleep_list);
   113ef:	83 ec 0c             	sub    $0xc,%esp
   113f2:	68 1c 70 01 00       	push   $0x1701c
   113f7:	e8 a8 1b 00 00       	call   12fa4 <list_init>
   113fc:	83 c4 10             	add    $0x10,%esp

    // 空闲任务初始化
    task_init(&task_manager.idle_task,"idle_task",TASK_FLAG_SYSTEM,(uint32_t)idle_task_entry,(uint32_t)(idle_task_stack+IDLE_STACK_SIZE));
   113ff:	b8 c0 81 01 00       	mov    $0x181c0,%eax
   11404:	89 c2                	mov    %eax,%edx
   11406:	b8 60 13 01 00       	mov    $0x11360,%eax
   1140b:	83 ec 0c             	sub    $0xc,%esp
   1140e:	52                   	push   %edx
   1140f:	50                   	push   %eax
   11410:	6a 01                	push   $0x1
   11412:	68 4e 35 01 00       	push   $0x1354e
   11417:	68 f0 70 01 00       	push   $0x170f0
   1141c:	e8 fe fc ff ff       	call   1111f <task_init>
   11421:	83 c4 20             	add    $0x20,%esp
    task_manager.curr_task = (task_t *)0;
   11424:	c7 05 00 70 01 00 00 	movl   $0x0,0x17000
   1142b:	00 00 00 
    task_start(&task_manager.idle_task);
   1142e:	83 ec 0c             	sub    $0xc,%esp
   11431:	68 f0 70 01 00       	push   $0x170f0
   11436:	e8 ee fe ff ff       	call   11329 <task_start>
   1143b:	83 c4 10             	add    $0x10,%esp
}
   1143e:	90                   	nop
   1143f:	c9                   	leave  
   11440:	c3                   	ret    

00011441 <task_set_ready>:

/**
 * @brief 将任务插入就绪队列
 */
void task_set_ready(task_t *task) {
   11441:	55                   	push   %ebp
   11442:	89 e5                	mov    %esp,%ebp
   11444:	83 ec 08             	sub    $0x8,%esp
    if (task != &task_manager.idle_task) {
   11447:	81 7d 08 f0 70 01 00 	cmpl   $0x170f0,0x8(%ebp)
   1144e:	74 22                	je     11472 <task_set_ready+0x31>
        list_insert_last(&task_manager.ready_list, &task->run_node);
   11450:	8b 45 08             	mov    0x8(%ebp),%eax
   11453:	05 b0 00 00 00       	add    $0xb0,%eax
   11458:	83 ec 08             	sub    $0x8,%esp
   1145b:	50                   	push   %eax
   1145c:	68 04 70 01 00       	push   $0x17004
   11461:	e8 c2 1b 00 00       	call   13028 <list_insert_last>
   11466:	83 c4 10             	add    $0x10,%esp
        task->state = TASK_READY;
   11469:	8b 45 08             	mov    0x8(%ebp),%eax
   1146c:	c7 00 03 00 00 00    	movl   $0x3,(%eax)
    }
}
   11472:	90                   	nop
   11473:	c9                   	leave  
   11474:	c3                   	ret    

00011475 <task_set_block>:

/**
 * @brief 将任务从就绪队列移除
 */
void task_set_block (task_t *task) {
   11475:	55                   	push   %ebp
   11476:	89 e5                	mov    %esp,%ebp
   11478:	83 ec 08             	sub    $0x8,%esp
    if (task != &task_manager.idle_task) {
   1147b:	81 7d 08 f0 70 01 00 	cmpl   $0x170f0,0x8(%ebp)
   11482:	74 19                	je     1149d <task_set_block+0x28>
        list_remove(&task_manager.ready_list, &task->run_node);
   11484:	8b 45 08             	mov    0x8(%ebp),%eax
   11487:	05 b0 00 00 00       	add    $0xb0,%eax
   1148c:	83 ec 08             	sub    $0x8,%esp
   1148f:	50                   	push   %eax
   11490:	68 04 70 01 00       	push   $0x17004
   11495:	e8 6a 1c 00 00       	call   13104 <list_remove>
   1149a:	83 c4 10             	add    $0x10,%esp
    }
}
   1149d:	90                   	nop
   1149e:	c9                   	leave  
   1149f:	c3                   	ret    

000114a0 <task_current>:

/**
 * @brief 获取当前正在运行的任务
 */
task_t * task_current (void) {
   114a0:	55                   	push   %ebp
   114a1:	89 e5                	mov    %esp,%ebp
    return task_manager.curr_task;
   114a3:	a1 00 70 01 00       	mov    0x17000,%eax
}
   114a8:	5d                   	pop    %ebp
   114a9:	c3                   	ret    

000114aa <task_dispatch>:

/**
 * @brief 进行一次任务调度
 */
void task_dispatch (void) {
   114aa:	55                   	push   %ebp
   114ab:	89 e5                	mov    %esp,%ebp
   114ad:	83 ec 18             	sub    $0x18,%esp
    irq_state_t state = irq_enter_protection();
   114b0:	e8 24 0e 00 00       	call   122d9 <irq_enter_protection>
   114b5:	89 45 f4             	mov    %eax,-0xc(%ebp)
    task_t * to = task_next_run();
   114b8:	e8 1d fc ff ff       	call   110da <task_next_run>
   114bd:	89 45 f0             	mov    %eax,-0x10(%ebp)

    if (to != task_manager.curr_task) {
   114c0:	a1 00 70 01 00       	mov    0x17000,%eax
   114c5:	39 45 f0             	cmp    %eax,-0x10(%ebp)
   114c8:	74 2a                	je     114f4 <task_dispatch+0x4a>
        task_t * from = task_manager.curr_task;
   114ca:	a1 00 70 01 00       	mov    0x17000,%eax
   114cf:	89 45 ec             	mov    %eax,-0x14(%ebp)
        task_manager.curr_task = to;
   114d2:	8b 45 f0             	mov    -0x10(%ebp),%eax
   114d5:	a3 00 70 01 00       	mov    %eax,0x17000
        to->state = TASK_RUNNING;
   114da:	8b 45 f0             	mov    -0x10(%ebp),%eax
   114dd:	c7 00 01 00 00 00    	movl   $0x1,(%eax)
        task_switch_from_to(from, to);
   114e3:	83 ec 08             	sub    $0x8,%esp
   114e6:	ff 75 f0             	pushl  -0x10(%ebp)
   114e9:	ff 75 ec             	pushl  -0x14(%ebp)
   114ec:	e8 27 fd ff ff       	call   11218 <task_switch_from_to>
   114f1:	83 c4 10             	add    $0x10,%esp
    }
    irq_leave_protection(state);
   114f4:	83 ec 0c             	sub    $0xc,%esp
   114f7:	ff 75 f4             	pushl  -0xc(%ebp)
   114fa:	e8 f2 0d 00 00       	call   122f1 <irq_leave_protection>
   114ff:	83 c4 10             	add    $0x10,%esp
}
   11502:	90                   	nop
   11503:	c9                   	leave  
   11504:	c3                   	ret    

00011505 <sys_sched_yield>:

int sys_sched_yield (void){
   11505:	55                   	push   %ebp
   11506:	89 e5                	mov    %esp,%ebp
   11508:	83 ec 18             	sub    $0x18,%esp
    irq_state_t state = irq_enter_protection();
   1150b:	e8 c9 0d 00 00       	call   122d9 <irq_enter_protection>
   11510:	89 45 f4             	mov    %eax,-0xc(%ebp)

    if (list_count(&task_manager.ready_list) > 1) {
   11513:	83 ec 0c             	sub    $0xc,%esp
   11516:	68 04 70 01 00       	push   $0x17004
   1151b:	e8 f0 f9 ff ff       	call   10f10 <list_count>
   11520:	83 c4 10             	add    $0x10,%esp
   11523:	83 f8 01             	cmp    $0x1,%eax
   11526:	7e 29                	jle    11551 <sys_sched_yield+0x4c>
        task_t * curr_task = task_current();
   11528:	e8 73 ff ff ff       	call   114a0 <task_current>
   1152d:	89 45 f0             	mov    %eax,-0x10(%ebp)

        // 如果队列中还有其它任务，则将当前任务移入到队列尾部
        task_set_block(curr_task);
   11530:	83 ec 0c             	sub    $0xc,%esp
   11533:	ff 75 f0             	pushl  -0x10(%ebp)
   11536:	e8 3a ff ff ff       	call   11475 <task_set_block>
   1153b:	83 c4 10             	add    $0x10,%esp
        task_set_ready(curr_task);
   1153e:	83 ec 0c             	sub    $0xc,%esp
   11541:	ff 75 f0             	pushl  -0x10(%ebp)
   11544:	e8 f8 fe ff ff       	call   11441 <task_set_ready>
   11549:	83 c4 10             	add    $0x10,%esp

        // 切换至下一个任务，在切换完成前要保护，不然可能下一任务
        // 由于某些原因运行后阻塞或删除，再回到这里切换将发生问题
        task_dispatch();
   1154c:	e8 59 ff ff ff       	call   114aa <task_dispatch>
    }
    irq_leave_protection(state);
   11551:	83 ec 0c             	sub    $0xc,%esp
   11554:	ff 75 f4             	pushl  -0xc(%ebp)
   11557:	e8 95 0d 00 00       	call   122f1 <irq_leave_protection>
   1155c:	83 c4 10             	add    $0x10,%esp

    return 0;
   1155f:	b8 00 00 00 00       	mov    $0x0,%eax
}
   11564:	c9                   	leave  
   11565:	c3                   	ret    

00011566 <task_time_tick>:

/**
 * @brief 时间处理
 * 该函数在中断处理函数中调用
 */
void task_time_tick (void) {
   11566:	55                   	push   %ebp
   11567:	89 e5                	mov    %esp,%ebp
   11569:	83 ec 28             	sub    $0x28,%esp
    task_t * curr_task = task_current();
   1156c:	e8 2f ff ff ff       	call   114a0 <task_current>
   11571:	89 45 f0             	mov    %eax,-0x10(%ebp)

    // 时间片的处理
    irq_state_t state = irq_enter_protection();
   11574:	e8 60 0d 00 00       	call   122d9 <irq_enter_protection>
   11579:	89 45 ec             	mov    %eax,-0x14(%ebp)
    if (--curr_task->slice_ticks == 0) {
   1157c:	8b 45 f0             	mov    -0x10(%ebp),%eax
   1157f:	8b 40 40             	mov    0x40(%eax),%eax
   11582:	8d 50 ff             	lea    -0x1(%eax),%edx
   11585:	8b 45 f0             	mov    -0x10(%ebp),%eax
   11588:	89 50 40             	mov    %edx,0x40(%eax)
   1158b:	8b 45 f0             	mov    -0x10(%ebp),%eax
   1158e:	8b 40 40             	mov    0x40(%eax),%eax
   11591:	85 c0                	test   %eax,%eax
   11593:	75 2d                	jne    115c2 <task_time_tick+0x5c>
        // 时间片用完，重新加载时间片
        // 对于空闲任务，此处减未用
        curr_task->slice_ticks = curr_task->time_ticks;
   11595:	8b 45 f0             	mov    -0x10(%ebp),%eax
   11598:	8b 50 3c             	mov    0x3c(%eax),%edx
   1159b:	8b 45 f0             	mov    -0x10(%ebp),%eax
   1159e:	89 50 40             	mov    %edx,0x40(%eax)

        // 调整队列的位置到尾部，不用直接操作队列
        task_set_block(curr_task);
   115a1:	83 ec 0c             	sub    $0xc,%esp
   115a4:	ff 75 f0             	pushl  -0x10(%ebp)
   115a7:	e8 c9 fe ff ff       	call   11475 <task_set_block>
   115ac:	83 c4 10             	add    $0x10,%esp
        task_set_ready(curr_task);
   115af:	83 ec 0c             	sub    $0xc,%esp
   115b2:	ff 75 f0             	pushl  -0x10(%ebp)
   115b5:	e8 87 fe ff ff       	call   11441 <task_set_ready>
   115ba:	83 c4 10             	add    $0x10,%esp
        task_dispatch();
   115bd:	e8 e8 fe ff ff       	call   114aa <task_dispatch>
    }
    
    // 睡眠处理
    list_node_t * curr = list_first(&task_manager.sleep_list);
   115c2:	83 ec 0c             	sub    $0xc,%esp
   115c5:	68 1c 70 01 00       	push   $0x1701c
   115ca:	e8 4c f9 ff ff       	call   10f1b <list_first>
   115cf:	83 c4 10             	add    $0x10,%esp
   115d2:	89 45 f4             	mov    %eax,-0xc(%ebp)
    while (curr) {
   115d5:	eb 64                	jmp    1163b <task_time_tick+0xd5>
        list_node_t * next = list_node_next(curr);
   115d7:	83 ec 0c             	sub    $0xc,%esp
   115da:	ff 75 f4             	pushl  -0xc(%ebp)
   115dd:	e8 23 f9 ff ff       	call   10f05 <list_node_next>
   115e2:	83 c4 10             	add    $0x10,%esp
   115e5:	89 45 e8             	mov    %eax,-0x18(%ebp)

        task_t * task = list_node_parent(curr, task_t, run_node);
   115e8:	83 7d f4 00          	cmpl   $0x0,-0xc(%ebp)
   115ec:	74 0a                	je     115f8 <task_time_tick+0x92>
   115ee:	8b 45 f4             	mov    -0xc(%ebp),%eax
   115f1:	2d b0 00 00 00       	sub    $0xb0,%eax
   115f6:	eb 05                	jmp    115fd <task_time_tick+0x97>
   115f8:	b8 00 00 00 00       	mov    $0x0,%eax
   115fd:	89 45 e4             	mov    %eax,-0x1c(%ebp)
        if (--task->sleep_ticks == 0) {
   11600:	8b 45 e4             	mov    -0x1c(%ebp),%eax
   11603:	8b 40 38             	mov    0x38(%eax),%eax
   11606:	8d 50 ff             	lea    -0x1(%eax),%edx
   11609:	8b 45 e4             	mov    -0x1c(%ebp),%eax
   1160c:	89 50 38             	mov    %edx,0x38(%eax)
   1160f:	8b 45 e4             	mov    -0x1c(%ebp),%eax
   11612:	8b 40 38             	mov    0x38(%eax),%eax
   11615:	85 c0                	test   %eax,%eax
   11617:	75 1c                	jne    11635 <task_time_tick+0xcf>
            // 延时时间到达，从睡眠队列中移除，送至就绪队列
            task_set_wakeup(task);
   11619:	83 ec 0c             	sub    $0xc,%esp
   1161c:	ff 75 e4             	pushl  -0x1c(%ebp)
   1161f:	e8 6f 00 00 00       	call   11693 <task_set_wakeup>
   11624:	83 c4 10             	add    $0x10,%esp
            task_set_ready(task);
   11627:	83 ec 0c             	sub    $0xc,%esp
   1162a:	ff 75 e4             	pushl  -0x1c(%ebp)
   1162d:	e8 0f fe ff ff       	call   11441 <task_set_ready>
   11632:	83 c4 10             	add    $0x10,%esp
        }
        curr = next;
   11635:	8b 45 e8             	mov    -0x18(%ebp),%eax
   11638:	89 45 f4             	mov    %eax,-0xc(%ebp)
    while (curr) {
   1163b:	83 7d f4 00          	cmpl   $0x0,-0xc(%ebp)
   1163f:	75 96                	jne    115d7 <task_time_tick+0x71>
    }

    task_dispatch();
   11641:	e8 64 fe ff ff       	call   114aa <task_dispatch>
    irq_leave_protection(state);
   11646:	83 ec 0c             	sub    $0xc,%esp
   11649:	ff 75 ec             	pushl  -0x14(%ebp)
   1164c:	e8 a0 0c 00 00       	call   122f1 <irq_leave_protection>
   11651:	83 c4 10             	add    $0x10,%esp
}
   11654:	90                   	nop
   11655:	c9                   	leave  
   11656:	c3                   	ret    

00011657 <task_set_sleep>:
/**
 * @brief 将任务加入睡眠状态
 */
void task_set_sleep(task_t *task, uint32_t ticks) {
   11657:	55                   	push   %ebp
   11658:	89 e5                	mov    %esp,%ebp
   1165a:	83 ec 08             	sub    $0x8,%esp
    if (ticks <= 0) {
   1165d:	83 7d 0c 00          	cmpl   $0x0,0xc(%ebp)
   11661:	74 2d                	je     11690 <task_set_sleep+0x39>
        return;
    }

    task->sleep_ticks = ticks;
   11663:	8b 55 0c             	mov    0xc(%ebp),%edx
   11666:	8b 45 08             	mov    0x8(%ebp),%eax
   11669:	89 50 38             	mov    %edx,0x38(%eax)
    task->state = TASK_SLEEP;
   1166c:	8b 45 08             	mov    0x8(%ebp),%eax
   1166f:	c7 00 02 00 00 00    	movl   $0x2,(%eax)
    list_insert_last(&task_manager.sleep_list, &task->run_node);
   11675:	8b 45 08             	mov    0x8(%ebp),%eax
   11678:	05 b0 00 00 00       	add    $0xb0,%eax
   1167d:	83 ec 08             	sub    $0x8,%esp
   11680:	50                   	push   %eax
   11681:	68 1c 70 01 00       	push   $0x1701c
   11686:	e8 9d 19 00 00       	call   13028 <list_insert_last>
   1168b:	83 c4 10             	add    $0x10,%esp
   1168e:	eb 01                	jmp    11691 <task_set_sleep+0x3a>
        return;
   11690:	90                   	nop
}
   11691:	c9                   	leave  
   11692:	c3                   	ret    

00011693 <task_set_wakeup>:
/**
 * @brief 将任务从延时队列移除
 * 
 * @param task 
 */
void task_set_wakeup (task_t *task) {
   11693:	55                   	push   %ebp
   11694:	89 e5                	mov    %esp,%ebp
   11696:	83 ec 08             	sub    $0x8,%esp
    list_remove(&task_manager.sleep_list, &task->run_node);
   11699:	8b 45 08             	mov    0x8(%ebp),%eax
   1169c:	05 b0 00 00 00       	add    $0xb0,%eax
   116a1:	83 ec 08             	sub    $0x8,%esp
   116a4:	50                   	push   %eax
   116a5:	68 1c 70 01 00       	push   $0x1701c
   116aa:	e8 55 1a 00 00       	call   13104 <list_remove>
   116af:	83 c4 10             	add    $0x10,%esp
}
   116b2:	90                   	nop
   116b3:	c9                   	leave  
   116b4:	c3                   	ret    

000116b5 <sys_msleep>:
/**
 * @brief 任务进入睡眠状态
 * 
 * @param ms 
 */
void sys_msleep (uint32_t ms) {
   116b5:	55                   	push   %ebp
   116b6:	89 e5                	mov    %esp,%ebp
   116b8:	83 ec 18             	sub    $0x18,%esp
    // 至少延时1个tick
    if (ms < OS_TICK_MS) {
   116bb:	83 7d 08 09          	cmpl   $0x9,0x8(%ebp)
   116bf:	77 07                	ja     116c8 <sys_msleep+0x13>
        ms = OS_TICK_MS;
   116c1:	c7 45 08 0a 00 00 00 	movl   $0xa,0x8(%ebp)
    }

    irq_state_t state = irq_enter_protection();
   116c8:	e8 0c 0c 00 00       	call   122d9 <irq_enter_protection>
   116cd:	89 45 f4             	mov    %eax,-0xc(%ebp)

    // 从就绪队列移除，加入睡眠队列
    task_set_block(task_manager.curr_task);
   116d0:	a1 00 70 01 00       	mov    0x17000,%eax
   116d5:	83 ec 0c             	sub    $0xc,%esp
   116d8:	50                   	push   %eax
   116d9:	e8 97 fd ff ff       	call   11475 <task_set_block>
   116de:	83 c4 10             	add    $0x10,%esp
    task_set_sleep(task_manager.curr_task, (ms + (OS_TICK_MS - 1))/ OS_TICK_MS);
   116e1:	8b 45 08             	mov    0x8(%ebp),%eax
   116e4:	83 c0 09             	add    $0x9,%eax
   116e7:	ba cd cc cc cc       	mov    $0xcccccccd,%edx
   116ec:	f7 e2                	mul    %edx
   116ee:	c1 ea 03             	shr    $0x3,%edx
   116f1:	a1 00 70 01 00       	mov    0x17000,%eax
   116f6:	83 ec 08             	sub    $0x8,%esp
   116f9:	52                   	push   %edx
   116fa:	50                   	push   %eax
   116fb:	e8 57 ff ff ff       	call   11657 <task_set_sleep>
   11700:	83 c4 10             	add    $0x10,%esp
    
    // 进行一次调度
    task_dispatch();
   11703:	e8 a2 fd ff ff       	call   114aa <task_dispatch>

    irq_leave_protection(state);
   11708:	83 ec 0c             	sub    $0xc,%esp
   1170b:	ff 75 f4             	pushl  -0xc(%ebp)
   1170e:	e8 de 0b 00 00       	call   122f1 <irq_leave_protection>
   11713:	83 c4 10             	add    $0x10,%esp
}
   11716:	90                   	nop
   11717:	c9                   	leave  
   11718:	c3                   	ret    

00011719 <lgdt>:
static inline void lgdt(uint32_t start, uint32_t size) {
   11719:	55                   	push   %ebp
   1171a:	89 e5                	mov    %esp,%ebp
   1171c:	83 ec 10             	sub    $0x10,%esp
	gdt.start31_16 = start >> 16;
   1171f:	8b 45 08             	mov    0x8(%ebp),%eax
   11722:	c1 e8 10             	shr    $0x10,%eax
   11725:	66 89 45 fe          	mov    %ax,-0x2(%ebp)
	gdt.start15_0 = start & 0xFFFF;
   11729:	8b 45 08             	mov    0x8(%ebp),%eax
   1172c:	66 89 45 fc          	mov    %ax,-0x4(%ebp)
	gdt.limit = size - 1;
   11730:	8b 45 0c             	mov    0xc(%ebp),%eax
   11733:	83 e8 01             	sub    $0x1,%eax
   11736:	66 89 45 fa          	mov    %ax,-0x6(%ebp)
	__asm__ __volatile__("lgdt %[g]"::[g]"m"(gdt));
   1173a:	0f 01 55 fa          	lgdtl  -0x6(%ebp)
}
   1173e:	90                   	nop
   1173f:	c9                   	leave  
   11740:	c3                   	ret    

00011741 <far_jump>:
static inline void far_jump(uint32_t selector, uint32_t offset) {
   11741:	55                   	push   %ebp
   11742:	89 e5                	mov    %esp,%ebp
   11744:	83 ec 10             	sub    $0x10,%esp
	uint32_t addr[] = {offset, selector };
   11747:	8b 45 0c             	mov    0xc(%ebp),%eax
   1174a:	89 45 f8             	mov    %eax,-0x8(%ebp)
   1174d:	8b 45 08             	mov    0x8(%ebp),%eax
   11750:	89 45 fc             	mov    %eax,-0x4(%ebp)
	__asm__ __volatile__("ljmpl *(%[a])"::[a]"r"(addr));
   11753:	8d 45 f8             	lea    -0x8(%ebp),%eax
   11756:	ff 28                	ljmp   *(%eax)
}
   11758:	90                   	nop
   11759:	c9                   	leave  
   1175a:	c3                   	ret    

0001175b <segment_desc_set>:
#include "ipc/mutex.h"


static segment_desc_t gdt_table[GDT_TABLE_SIZE];
static mutex_t mutex;
void segment_desc_set(int selector, uint32_t base, uint32_t limit, uint16_t attr){
   1175b:	55                   	push   %ebp
   1175c:	89 e5                	mov    %esp,%ebp
   1175e:	83 ec 14             	sub    $0x14,%esp
   11761:	8b 45 14             	mov    0x14(%ebp),%eax
   11764:	66 89 45 ec          	mov    %ax,-0x14(%ebp)
    segment_desc_t* desc=gdt_table + selector/sizeof(segment_desc_t);
   11768:	8b 45 08             	mov    0x8(%ebp),%eax
   1176b:	83 e0 f8             	and    $0xfffffff8,%eax
   1176e:	05 c0 e5 01 00       	add    $0x1e5c0,%eax
   11773:	89 45 fc             	mov    %eax,-0x4(%ebp)
    if(limit > 0xFFFFF){
   11776:	81 7d 10 ff ff 0f 00 	cmpl   $0xfffff,0x10(%ebp)
   1177d:	76 0f                	jbe    1178e <segment_desc_set+0x33>
        attr |= 0x8000;
   1177f:	66 81 4d ec 00 80    	orw    $0x8000,-0x14(%ebp)
        limit /=0x1000;
   11785:	8b 45 10             	mov    0x10(%ebp),%eax
   11788:	c1 e8 0c             	shr    $0xc,%eax
   1178b:	89 45 10             	mov    %eax,0x10(%ebp)
    }

    desc->limit15_0 = limit & 0xFFFF;
   1178e:	8b 45 10             	mov    0x10(%ebp),%eax
   11791:	89 c2                	mov    %eax,%edx
   11793:	8b 45 fc             	mov    -0x4(%ebp),%eax
   11796:	66 89 10             	mov    %dx,(%eax)
    desc->base15_0 = base &0xFFFF;
   11799:	8b 45 0c             	mov    0xc(%ebp),%eax
   1179c:	89 c2                	mov    %eax,%edx
   1179e:	8b 45 fc             	mov    -0x4(%ebp),%eax
   117a1:	66 89 50 02          	mov    %dx,0x2(%eax)
    desc->base23_16 = (base >> 16) & 0xFF;
   117a5:	8b 45 0c             	mov    0xc(%ebp),%eax
   117a8:	c1 e8 10             	shr    $0x10,%eax
   117ab:	89 c2                	mov    %eax,%edx
   117ad:	8b 45 fc             	mov    -0x4(%ebp),%eax
   117b0:	88 50 04             	mov    %dl,0x4(%eax)
    desc->attr = attr | (((limit >> 16) & 0xF) << 8);
   117b3:	8b 45 10             	mov    0x10(%ebp),%eax
   117b6:	c1 e8 10             	shr    $0x10,%eax
   117b9:	c1 e0 08             	shl    $0x8,%eax
   117bc:	66 25 00 0f          	and    $0xf00,%ax
   117c0:	66 0b 45 ec          	or     -0x14(%ebp),%ax
   117c4:	89 c2                	mov    %eax,%edx
   117c6:	8b 45 fc             	mov    -0x4(%ebp),%eax
   117c9:	66 89 50 05          	mov    %dx,0x5(%eax)
    desc->base31_24 = (base >> 24) & 0xFF;
   117cd:	8b 45 0c             	mov    0xc(%ebp),%eax
   117d0:	c1 e8 18             	shr    $0x18,%eax
   117d3:	89 c2                	mov    %eax,%edx
   117d5:	8b 45 fc             	mov    -0x4(%ebp),%eax
   117d8:	88 50 07             	mov    %dl,0x7(%eax)
}
   117db:	90                   	nop
   117dc:	c9                   	leave  
   117dd:	c3                   	ret    

000117de <gate_desc_set>:

void gate_desc_set(gate_desc_t * desc, uint16_t selector, uint32_t offset, uint16_t attr){
   117de:	55                   	push   %ebp
   117df:	89 e5                	mov    %esp,%ebp
   117e1:	83 ec 08             	sub    $0x8,%esp
   117e4:	8b 55 0c             	mov    0xc(%ebp),%edx
   117e7:	8b 45 14             	mov    0x14(%ebp),%eax
   117ea:	66 89 55 fc          	mov    %dx,-0x4(%ebp)
   117ee:	66 89 45 f8          	mov    %ax,-0x8(%ebp)
    desc->offset15_0 = offset & 0xFFFF;
   117f2:	8b 45 10             	mov    0x10(%ebp),%eax
   117f5:	89 c2                	mov    %eax,%edx
   117f7:	8b 45 08             	mov    0x8(%ebp),%eax
   117fa:	66 89 10             	mov    %dx,(%eax)
    desc->selector = selector;
   117fd:	8b 45 08             	mov    0x8(%ebp),%eax
   11800:	0f b7 55 fc          	movzwl -0x4(%ebp),%edx
   11804:	66 89 50 02          	mov    %dx,0x2(%eax)
    desc->attr = attr;
   11808:	8b 45 08             	mov    0x8(%ebp),%eax
   1180b:	0f b7 55 f8          	movzwl -0x8(%ebp),%edx
   1180f:	66 89 50 04          	mov    %dx,0x4(%eax)
    desc->offset31_16 = (offset >> 16)& 0xFFFF;
   11813:	8b 45 10             	mov    0x10(%ebp),%eax
   11816:	c1 e8 10             	shr    $0x10,%eax
   11819:	89 c2                	mov    %eax,%edx
   1181b:	8b 45 08             	mov    0x8(%ebp),%eax
   1181e:	66 89 50 06          	mov    %dx,0x6(%eax)
}
   11822:	90                   	nop
   11823:	c9                   	leave  
   11824:	c3                   	ret    

00011825 <init_gdt>:


void init_gdt(void){
   11825:	55                   	push   %ebp
   11826:	89 e5                	mov    %esp,%ebp
   11828:	83 ec 10             	sub    $0x10,%esp
    for(int i=0; i< GDT_TABLE_SIZE; i++){
   1182b:	c7 45 fc 00 00 00 00 	movl   $0x0,-0x4(%ebp)
   11832:	eb 19                	jmp    1184d <init_gdt+0x28>
        segment_desc_set(i * sizeof(segment_desc_t), 0, 0, 0);
   11834:	8b 45 fc             	mov    -0x4(%ebp),%eax
   11837:	c1 e0 03             	shl    $0x3,%eax
   1183a:	6a 00                	push   $0x0
   1183c:	6a 00                	push   $0x0
   1183e:	6a 00                	push   $0x0
   11840:	50                   	push   %eax
   11841:	e8 15 ff ff ff       	call   1175b <segment_desc_set>
   11846:	83 c4 10             	add    $0x10,%esp
    for(int i=0; i< GDT_TABLE_SIZE; i++){
   11849:	83 45 fc 01          	addl   $0x1,-0x4(%ebp)
   1184d:	81 7d fc ff 00 00 00 	cmpl   $0xff,-0x4(%ebp)
   11854:	7e de                	jle    11834 <init_gdt+0xf>
    }
    segment_desc_set(KERNEL_SELECTOR_DS, 0, 0xFFFFFFFF,
   11856:	68 92 40 00 00       	push   $0x4092
   1185b:	6a ff                	push   $0xffffffff
   1185d:	6a 00                	push   $0x0
   1185f:	6a 10                	push   $0x10
   11861:	e8 f5 fe ff ff       	call   1175b <segment_desc_set>
   11866:	83 c4 10             	add    $0x10,%esp
    SEG_P_PRESENT | SEG_DPL0 | SEG_S_NORMAL | SEG_TYPE_DATA | SEG_TYPE_RW | SEG_D);

    segment_desc_set(KERNEL_SELECTOR_CS, 0, 0xFFFFFFFF,
   11869:	68 98 40 00 00       	push   $0x4098
   1186e:	6a ff                	push   $0xffffffff
   11870:	6a 00                	push   $0x0
   11872:	6a 08                	push   $0x8
   11874:	e8 e2 fe ff ff       	call   1175b <segment_desc_set>
   11879:	83 c4 10             	add    $0x10,%esp
    SEG_P_PRESENT | SEG_DPL0 | SEG_S_NORMAL | SEG_TYPE_CODE | SEG_D);

    lgdt((uint32_t)gdt_table, sizeof(gdt_table));
   1187c:	b8 c0 e5 01 00       	mov    $0x1e5c0,%eax
   11881:	68 00 08 00 00       	push   $0x800
   11886:	50                   	push   %eax
   11887:	e8 8d fe ff ff       	call   11719 <lgdt>
   1188c:	83 c4 08             	add    $0x8,%esp
}
   1188f:	90                   	nop
   11890:	c9                   	leave  
   11891:	c3                   	ret    

00011892 <gdt_alloc_desc>:

/**
 * 分配一个GDT推荐表符
 */
int gdt_alloc_desc (void) {
   11892:	55                   	push   %ebp
   11893:	89 e5                	mov    %esp,%ebp
   11895:	83 ec 18             	sub    $0x18,%esp
    //irq_state_t state = irq_enter_protection();
    mutex_lock(&mutex);
   11898:	83 ec 0c             	sub    $0xc,%esp
   1189b:	68 c0 ed 01 00       	push   $0x1edc0
   118a0:	e8 4c 0c 00 00       	call   124f1 <mutex_lock>
   118a5:	83 c4 10             	add    $0x10,%esp
    int i;
    for (i = 1; i < GDT_TABLE_SIZE; i++) {
   118a8:	c7 45 f4 01 00 00 00 	movl   $0x1,-0xc(%ebp)
   118af:	eb 29                	jmp    118da <gdt_alloc_desc+0x48>
        segment_desc_t * desc = gdt_table + i;
   118b1:	8b 45 f4             	mov    -0xc(%ebp),%eax
   118b4:	c1 e0 03             	shl    $0x3,%eax
   118b7:	05 c0 e5 01 00       	add    $0x1e5c0,%eax
   118bc:	89 45 f0             	mov    %eax,-0x10(%ebp)
        if (desc->attr == 0) {
   118bf:	8b 45 f0             	mov    -0x10(%ebp),%eax
   118c2:	0f b7 40 05          	movzwl 0x5(%eax),%eax
   118c6:	66 85 c0             	test   %ax,%ax
   118c9:	75 0b                	jne    118d6 <gdt_alloc_desc+0x44>
            desc->attr = SEG_P_PRESENT;     // 标记为占用状态
   118cb:	8b 45 f0             	mov    -0x10(%ebp),%eax
   118ce:	66 c7 40 05 80 00    	movw   $0x80,0x5(%eax)
            break;
   118d4:	eb 0d                	jmp    118e3 <gdt_alloc_desc+0x51>
    for (i = 1; i < GDT_TABLE_SIZE; i++) {
   118d6:	83 45 f4 01          	addl   $0x1,-0xc(%ebp)
   118da:	81 7d f4 ff 00 00 00 	cmpl   $0xff,-0xc(%ebp)
   118e1:	7e ce                	jle    118b1 <gdt_alloc_desc+0x1f>
        }
    }
    //irq_leave_protection(state);
    mutex_unlock(&mutex);
   118e3:	83 ec 0c             	sub    $0xc,%esp
   118e6:	68 c0 ed 01 00       	push   $0x1edc0
   118eb:	e8 98 0c 00 00       	call   12588 <mutex_unlock>
   118f0:	83 c4 10             	add    $0x10,%esp
    return i >= GDT_TABLE_SIZE ? -1 : i * sizeof(segment_desc_t);
   118f3:	81 7d f4 ff 00 00 00 	cmpl   $0xff,-0xc(%ebp)
   118fa:	7f 08                	jg     11904 <gdt_alloc_desc+0x72>
   118fc:	8b 45 f4             	mov    -0xc(%ebp),%eax
   118ff:	c1 e0 03             	shl    $0x3,%eax
   11902:	eb 05                	jmp    11909 <gdt_alloc_desc+0x77>
   11904:	b8 ff ff ff ff       	mov    $0xffffffff,%eax
}
   11909:	c9                   	leave  
   1190a:	c3                   	ret    

0001190b <switch_to_tss>:

/**
 * 切换至TSS，即跳转实现任务切换
 */
void switch_to_tss (uint32_t tss_sel) {
   1190b:	55                   	push   %ebp
   1190c:	89 e5                	mov    %esp,%ebp
    far_jump(tss_sel, 0);
   1190e:	6a 00                	push   $0x0
   11910:	ff 75 08             	pushl  0x8(%ebp)
   11913:	e8 29 fe ff ff       	call   11741 <far_jump>
   11918:	83 c4 08             	add    $0x8,%esp
}
   1191b:	90                   	nop
   1191c:	c9                   	leave  
   1191d:	c3                   	ret    

0001191e <cpu_init>:

void cpu_init(void){
   1191e:	55                   	push   %ebp
   1191f:	89 e5                	mov    %esp,%ebp
   11921:	83 ec 08             	sub    $0x8,%esp
    mutex_init(&mutex);
   11924:	83 ec 0c             	sub    $0xc,%esp
   11927:	68 c0 ed 01 00       	push   $0x1edc0
   1192c:	e8 92 0b 00 00       	call   124c3 <mutex_init>
   11931:	83 c4 10             	add    $0x10,%esp
    init_gdt();
   11934:	e8 ec fe ff ff       	call   11825 <init_gdt>
}
   11939:	90                   	nop
   1193a:	c9                   	leave  
   1193b:	c3                   	ret    

0001193c <gdt_free_sel>:

void gdt_free_sel (int sel) {
   1193c:	55                   	push   %ebp
   1193d:	89 e5                	mov    %esp,%ebp
   1193f:	83 ec 08             	sub    $0x8,%esp
    mutex_lock(&mutex);
   11942:	83 ec 0c             	sub    $0xc,%esp
   11945:	68 c0 ed 01 00       	push   $0x1edc0
   1194a:	e8 a2 0b 00 00       	call   124f1 <mutex_lock>
   1194f:	83 c4 10             	add    $0x10,%esp
    gdt_table[sel / sizeof(segment_desc_t)].attr = 0;
   11952:	8b 45 08             	mov    0x8(%ebp),%eax
   11955:	c1 e8 03             	shr    $0x3,%eax
   11958:	66 c7 04 c5 c5 e5 01 	movw   $0x0,0x1e5c5(,%eax,8)
   1195f:	00 00 00 
    mutex_unlock(&mutex);
   11962:	83 ec 0c             	sub    $0xc,%esp
   11965:	68 c0 ed 01 00       	push   $0x1edc0
   1196a:	e8 19 0c 00 00       	call   12588 <mutex_unlock>
   1196f:	83 c4 10             	add    $0x10,%esp
   11972:	90                   	nop
   11973:	c9                   	leave  
   11974:	c3                   	ret    

00011975 <inb>:
static inline uint8_t inb(uint16_t  port) {
   11975:	55                   	push   %ebp
   11976:	89 e5                	mov    %esp,%ebp
   11978:	83 ec 14             	sub    $0x14,%esp
   1197b:	8b 45 08             	mov    0x8(%ebp),%eax
   1197e:	66 89 45 ec          	mov    %ax,-0x14(%ebp)
	__asm__ __volatile__("inb %[p], %[v]" : [v]"=a" (rv) : [p]"d"(port));
   11982:	0f b7 45 ec          	movzwl -0x14(%ebp),%eax
   11986:	89 c2                	mov    %eax,%edx
   11988:	ec                   	in     (%dx),%al
   11989:	88 45 ff             	mov    %al,-0x1(%ebp)
	return rv;
   1198c:	0f b6 45 ff          	movzbl -0x1(%ebp),%eax
}
   11990:	c9                   	leave  
   11991:	c3                   	ret    

00011992 <outb>:
static inline void outb(uint16_t port, uint8_t data) {
   11992:	55                   	push   %ebp
   11993:	89 e5                	mov    %esp,%ebp
   11995:	83 ec 08             	sub    $0x8,%esp
   11998:	8b 55 08             	mov    0x8(%ebp),%edx
   1199b:	8b 45 0c             	mov    0xc(%ebp),%eax
   1199e:	66 89 55 fc          	mov    %dx,-0x4(%ebp)
   119a2:	88 45 f8             	mov    %al,-0x8(%ebp)
	__asm__ __volatile__("outb %[v], %[p]" : : [p]"d" (port), [v]"a" (data));
   119a5:	0f b7 55 fc          	movzwl -0x4(%ebp),%edx
   119a9:	0f b6 45 f8          	movzbl -0x8(%ebp),%eax
   119ad:	ee                   	out    %al,(%dx)
}
   119ae:	90                   	nop
   119af:	c9                   	leave  
   119b0:	c3                   	ret    

000119b1 <cli>:
static inline void cli() {
   119b1:	55                   	push   %ebp
   119b2:	89 e5                	mov    %esp,%ebp
	__asm__ __volatile__("cli");
   119b4:	fa                   	cli    
}
   119b5:	90                   	nop
   119b6:	5d                   	pop    %ebp
   119b7:	c3                   	ret    

000119b8 <sti>:
static inline void sti() {
   119b8:	55                   	push   %ebp
   119b9:	89 e5                	mov    %esp,%ebp
	__asm__ __volatile__("sti");
   119bb:	fb                   	sti    
}
   119bc:	90                   	nop
   119bd:	5d                   	pop    %ebp
   119be:	c3                   	ret    

000119bf <read_cr2>:
static inline uint32_t read_cr2() {
   119bf:	55                   	push   %ebp
   119c0:	89 e5                	mov    %esp,%ebp
   119c2:	83 ec 10             	sub    $0x10,%esp
	__asm__ __volatile__("mov %%cr2, %[v]":[v]"=r"(cr2));
   119c5:	0f 20 d0             	mov    %cr2,%eax
   119c8:	89 45 fc             	mov    %eax,-0x4(%ebp)
	return cr2;
   119cb:	8b 45 fc             	mov    -0x4(%ebp),%eax
}
   119ce:	c9                   	leave  
   119cf:	c3                   	ret    

000119d0 <lidt>:
static inline void lidt(uint32_t start, uint32_t size) {
   119d0:	55                   	push   %ebp
   119d1:	89 e5                	mov    %esp,%ebp
   119d3:	83 ec 10             	sub    $0x10,%esp
	idt.start31_16 = start >> 16;
   119d6:	8b 45 08             	mov    0x8(%ebp),%eax
   119d9:	c1 e8 10             	shr    $0x10,%eax
   119dc:	66 89 45 fe          	mov    %ax,-0x2(%ebp)
	idt.start15_0 = start & 0xFFFF;
   119e0:	8b 45 08             	mov    0x8(%ebp),%eax
   119e3:	66 89 45 fc          	mov    %ax,-0x4(%ebp)
	idt.limit = size - 1;
   119e7:	8b 45 0c             	mov    0xc(%ebp),%eax
   119ea:	83 e8 01             	sub    $0x1,%eax
   119ed:	66 89 45 fa          	mov    %ax,-0x6(%ebp)
	__asm__ __volatile__("lidt %0"::"m"(idt));
   119f1:	0f 01 5d fa          	lidtl  -0x6(%ebp)
}
   119f5:	90                   	nop
   119f6:	c9                   	leave  
   119f7:	c3                   	ret    

000119f8 <hlt>:
static inline void hlt(void) {
   119f8:	55                   	push   %ebp
   119f9:	89 e5                	mov    %esp,%ebp
    __asm__ __volatile__("hlt");
   119fb:	f4                   	hlt    
}
   119fc:	90                   	nop
   119fd:	5d                   	pop    %ebp
   119fe:	c3                   	ret    

000119ff <read_eflags>:

static inline uint32_t read_eflags (void) {
   119ff:	55                   	push   %ebp
   11a00:	89 e5                	mov    %esp,%ebp
   11a02:	83 ec 10             	sub    $0x10,%esp
    uint32_t eflags;

    __asm__ __volatile__("pushfl\n\tpopl %%eax":"=a"(eflags));
   11a05:	9c                   	pushf  
   11a06:	58                   	pop    %eax
   11a07:	89 45 fc             	mov    %eax,-0x4(%ebp)
    return eflags;
   11a0a:	8b 45 fc             	mov    -0x4(%ebp),%eax
}
   11a0d:	c9                   	leave  
   11a0e:	c3                   	ret    

00011a0f <write_eflags>:

static inline void write_eflags (uint32_t eflags) {
   11a0f:	55                   	push   %ebp
   11a10:	89 e5                	mov    %esp,%ebp
    __asm__ __volatile__("pushl %%eax\n\tpopfl"::"a"(eflags));
   11a12:	8b 45 08             	mov    0x8(%ebp),%eax
   11a15:	50                   	push   %eax
   11a16:	9d                   	popf   
}
   11a17:	90                   	nop
   11a18:	5d                   	pop    %ebp
   11a19:	c3                   	ret    

00011a1a <dump_core_regs>:
#include "tools/log.h"
#define IDE_TABLE_NR  128

static gate_desc_t idt_table[IDE_TABLE_NR];

static void dump_core_regs (exception_frame_t * frame) {
   11a1a:	55                   	push   %ebp
   11a1b:	89 e5                	mov    %esp,%ebp
   11a1d:	57                   	push   %edi
   11a1e:	56                   	push   %esi
   11a1f:	53                   	push   %ebx
   11a20:	83 ec 2c             	sub    $0x2c,%esp
    // 打印CPU寄存器相关内容
    uint32_t esp, ss;
    if (frame->cs & 0x7) {
   11a23:	8b 45 08             	mov    0x8(%ebp),%eax
   11a26:	8b 40 3c             	mov    0x3c(%eax),%eax
   11a29:	83 e0 07             	and    $0x7,%eax
   11a2c:	85 c0                	test   %eax,%eax
   11a2e:	74 14                	je     11a44 <dump_core_regs+0x2a>
        ss = frame->ds;
   11a30:	8b 45 08             	mov    0x8(%ebp),%eax
   11a33:	8b 40 0c             	mov    0xc(%eax),%eax
   11a36:	89 45 e0             	mov    %eax,-0x20(%ebp)
        esp = frame->esp;
   11a39:	8b 45 08             	mov    0x8(%ebp),%eax
   11a3c:	8b 40 1c             	mov    0x1c(%eax),%eax
   11a3f:	89 45 e4             	mov    %eax,-0x1c(%ebp)
   11a42:	eb 12                	jmp    11a56 <dump_core_regs+0x3c>
    } else {
        ss = frame->ss3;
   11a44:	8b 45 08             	mov    0x8(%ebp),%eax
   11a47:	8b 40 48             	mov    0x48(%eax),%eax
   11a4a:	89 45 e0             	mov    %eax,-0x20(%ebp)
        esp = frame->esp3;
   11a4d:	8b 45 08             	mov    0x8(%ebp),%eax
   11a50:	8b 40 44             	mov    0x44(%eax),%eax
   11a53:	89 45 e4             	mov    %eax,-0x1c(%ebp)
    }
    log_printf("IRQ: %d, error code: %d.", frame->num, frame->error_code);
   11a56:	8b 45 08             	mov    0x8(%ebp),%eax
   11a59:	8b 50 34             	mov    0x34(%eax),%edx
   11a5c:	8b 45 08             	mov    0x8(%ebp),%eax
   11a5f:	8b 40 30             	mov    0x30(%eax),%eax
   11a62:	83 ec 04             	sub    $0x4,%esp
   11a65:	52                   	push   %edx
   11a66:	50                   	push   %eax
   11a67:	68 74 35 01 00       	push   $0x13574
   11a6c:	e8 dc 17 00 00       	call   1324d <log_printf>
   11a71:	83 c4 10             	add    $0x10,%esp
    log_printf("CS: %d\nDS: %d\nES: %d\nSS: %d\nFS:%d\nGS:%d",
   11a74:	8b 45 08             	mov    0x8(%ebp),%eax
   11a77:	8b 30                	mov    (%eax),%esi
   11a79:	8b 45 08             	mov    0x8(%ebp),%eax
   11a7c:	8b 58 04             	mov    0x4(%eax),%ebx
   11a7f:	8b 45 08             	mov    0x8(%ebp),%eax
   11a82:	8b 48 08             	mov    0x8(%eax),%ecx
   11a85:	8b 45 08             	mov    0x8(%ebp),%eax
   11a88:	8b 50 0c             	mov    0xc(%eax),%edx
   11a8b:	8b 45 08             	mov    0x8(%ebp),%eax
   11a8e:	8b 40 3c             	mov    0x3c(%eax),%eax
   11a91:	83 ec 04             	sub    $0x4,%esp
   11a94:	56                   	push   %esi
   11a95:	53                   	push   %ebx
   11a96:	ff 75 e0             	pushl  -0x20(%ebp)
   11a99:	51                   	push   %ecx
   11a9a:	52                   	push   %edx
   11a9b:	50                   	push   %eax
   11a9c:	68 90 35 01 00       	push   $0x13590
   11aa1:	e8 a7 17 00 00       	call   1324d <log_printf>
   11aa6:	83 c4 20             	add    $0x20,%esp
               frame->cs, frame->ds, frame->es, ss, frame->fs, frame->gs
    );
     log_printf("EAX:0x%x\n"
   11aa9:	8b 45 08             	mov    0x8(%ebp),%eax
   11aac:	8b 40 18             	mov    0x18(%eax),%eax
   11aaf:	89 45 d4             	mov    %eax,-0x2c(%ebp)
   11ab2:	8b 45 08             	mov    0x8(%ebp),%eax
   11ab5:	8b 78 14             	mov    0x14(%eax),%edi
   11ab8:	8b 45 08             	mov    0x8(%ebp),%eax
   11abb:	8b 70 10             	mov    0x10(%eax),%esi
   11abe:	8b 45 08             	mov    0x8(%ebp),%eax
   11ac1:	8b 58 24             	mov    0x24(%eax),%ebx
   11ac4:	8b 45 08             	mov    0x8(%ebp),%eax
   11ac7:	8b 48 28             	mov    0x28(%eax),%ecx
   11aca:	8b 45 08             	mov    0x8(%ebp),%eax
   11acd:	8b 50 20             	mov    0x20(%eax),%edx
   11ad0:	8b 45 08             	mov    0x8(%ebp),%eax
   11ad3:	8b 40 2c             	mov    0x2c(%eax),%eax
   11ad6:	83 ec 0c             	sub    $0xc,%esp
   11ad9:	ff 75 e4             	pushl  -0x1c(%ebp)
   11adc:	ff 75 d4             	pushl  -0x2c(%ebp)
   11adf:	57                   	push   %edi
   11ae0:	56                   	push   %esi
   11ae1:	53                   	push   %ebx
   11ae2:	51                   	push   %ecx
   11ae3:	52                   	push   %edx
   11ae4:	50                   	push   %eax
   11ae5:	68 b8 35 01 00       	push   $0x135b8
   11aea:	e8 5e 17 00 00       	call   1324d <log_printf>
   11aef:	83 c4 30             	add    $0x30,%esp
                "ESI:0x%x\n"
                "EBP:0x%x\n"
                "ESP:0x%x\n",
               frame->eax, frame->ebx, frame->ecx, frame->edx,
               frame->edi, frame->esi, frame->ebp, esp);
    log_printf("EIP:0x%x\nEFLAGS:0x%x\n", frame->eip, frame->eflags);
   11af2:	8b 45 08             	mov    0x8(%ebp),%eax
   11af5:	8b 50 40             	mov    0x40(%eax),%edx
   11af8:	8b 45 08             	mov    0x8(%ebp),%eax
   11afb:	8b 40 38             	mov    0x38(%eax),%eax
   11afe:	83 ec 04             	sub    $0x4,%esp
   11b01:	52                   	push   %edx
   11b02:	50                   	push   %eax
   11b03:	68 01 36 01 00       	push   $0x13601
   11b08:	e8 40 17 00 00       	call   1324d <log_printf>
   11b0d:	83 c4 10             	add    $0x10,%esp
}
   11b10:	90                   	nop
   11b11:	8d 65 f4             	lea    -0xc(%ebp),%esp
   11b14:	5b                   	pop    %ebx
   11b15:	5e                   	pop    %esi
   11b16:	5f                   	pop    %edi
   11b17:	5d                   	pop    %ebp
   11b18:	c3                   	ret    

00011b19 <do_default_handler>:

static void do_default_handler (exception_frame_t * frame, const char * message) {
   11b19:	55                   	push   %ebp
   11b1a:	89 e5                	mov    %esp,%ebp
   11b1c:	83 ec 08             	sub    $0x8,%esp
    log_printf("--------------------------------");
   11b1f:	83 ec 0c             	sub    $0xc,%esp
   11b22:	68 18 36 01 00       	push   $0x13618
   11b27:	e8 21 17 00 00       	call   1324d <log_printf>
   11b2c:	83 c4 10             	add    $0x10,%esp
    log_printf("IRQ/Exception happend: %s.", message);
   11b2f:	83 ec 08             	sub    $0x8,%esp
   11b32:	ff 75 0c             	pushl  0xc(%ebp)
   11b35:	68 39 36 01 00       	push   $0x13639
   11b3a:	e8 0e 17 00 00       	call   1324d <log_printf>
   11b3f:	83 c4 10             	add    $0x10,%esp
    dump_core_regs(frame);
   11b42:	83 ec 0c             	sub    $0xc,%esp
   11b45:	ff 75 08             	pushl  0x8(%ebp)
   11b48:	e8 cd fe ff ff       	call   11a1a <dump_core_regs>
   11b4d:	83 c4 10             	add    $0x10,%esp
    
    // todo: 留等以后补充打印任务栈的内容

    log_printf("--------------------------------");
   11b50:	83 ec 0c             	sub    $0xc,%esp
   11b53:	68 18 36 01 00       	push   $0x13618
   11b58:	e8 f0 16 00 00       	call   1324d <log_printf>
   11b5d:	83 c4 10             	add    $0x10,%esp
    //     for (;;) {
    //         hlt();
    //     }
    // }
    while(1){
        hlt();
   11b60:	e8 93 fe ff ff       	call   119f8 <hlt>
   11b65:	eb f9                	jmp    11b60 <do_default_handler+0x47>

00011b67 <do_handler_unknown>:
    }
}

void do_handler_unknown (exception_frame_t * frame) {
   11b67:	55                   	push   %ebp
   11b68:	89 e5                	mov    %esp,%ebp
   11b6a:	83 ec 08             	sub    $0x8,%esp
	do_default_handler(frame, "Unknown exception.");
   11b6d:	83 ec 08             	sub    $0x8,%esp
   11b70:	68 54 36 01 00       	push   $0x13654
   11b75:	ff 75 08             	pushl  0x8(%ebp)
   11b78:	e8 9c ff ff ff       	call   11b19 <do_default_handler>
   11b7d:	83 c4 10             	add    $0x10,%esp
}
   11b80:	90                   	nop
   11b81:	c9                   	leave  
   11b82:	c3                   	ret    

00011b83 <do_handler_divider>:

void do_handler_divider(exception_frame_t * frame) {
   11b83:	55                   	push   %ebp
   11b84:	89 e5                	mov    %esp,%ebp
   11b86:	83 ec 08             	sub    $0x8,%esp
	do_default_handler(frame, "Divider Error.");
   11b89:	83 ec 08             	sub    $0x8,%esp
   11b8c:	68 67 36 01 00       	push   $0x13667
   11b91:	ff 75 08             	pushl  0x8(%ebp)
   11b94:	e8 80 ff ff ff       	call   11b19 <do_default_handler>
   11b99:	83 c4 10             	add    $0x10,%esp
}
   11b9c:	90                   	nop
   11b9d:	c9                   	leave  
   11b9e:	c3                   	ret    

00011b9f <do_handler_Debug>:

void do_handler_Debug(exception_frame_t * frame) {
   11b9f:	55                   	push   %ebp
   11ba0:	89 e5                	mov    %esp,%ebp
   11ba2:	83 ec 08             	sub    $0x8,%esp
	do_default_handler(frame, "Debug Exception");
   11ba5:	83 ec 08             	sub    $0x8,%esp
   11ba8:	68 76 36 01 00       	push   $0x13676
   11bad:	ff 75 08             	pushl  0x8(%ebp)
   11bb0:	e8 64 ff ff ff       	call   11b19 <do_default_handler>
   11bb5:	83 c4 10             	add    $0x10,%esp
}
   11bb8:	90                   	nop
   11bb9:	c9                   	leave  
   11bba:	c3                   	ret    

00011bbb <do_handler_NMI>:

void do_handler_NMI(exception_frame_t * frame) {
   11bbb:	55                   	push   %ebp
   11bbc:	89 e5                	mov    %esp,%ebp
   11bbe:	83 ec 08             	sub    $0x8,%esp
	do_default_handler(frame, "NMI Interrupt.");
   11bc1:	83 ec 08             	sub    $0x8,%esp
   11bc4:	68 86 36 01 00       	push   $0x13686
   11bc9:	ff 75 08             	pushl  0x8(%ebp)
   11bcc:	e8 48 ff ff ff       	call   11b19 <do_default_handler>
   11bd1:	83 c4 10             	add    $0x10,%esp
}
   11bd4:	90                   	nop
   11bd5:	c9                   	leave  
   11bd6:	c3                   	ret    

00011bd7 <do_handler_breakpoint>:

void do_handler_breakpoint(exception_frame_t * frame) {
   11bd7:	55                   	push   %ebp
   11bd8:	89 e5                	mov    %esp,%ebp
   11bda:	83 ec 08             	sub    $0x8,%esp
	do_default_handler(frame, "Breakpoint.");
   11bdd:	83 ec 08             	sub    $0x8,%esp
   11be0:	68 95 36 01 00       	push   $0x13695
   11be5:	ff 75 08             	pushl  0x8(%ebp)
   11be8:	e8 2c ff ff ff       	call   11b19 <do_default_handler>
   11bed:	83 c4 10             	add    $0x10,%esp
}
   11bf0:	90                   	nop
   11bf1:	c9                   	leave  
   11bf2:	c3                   	ret    

00011bf3 <do_handler_overflow>:

void do_handler_overflow(exception_frame_t * frame) {
   11bf3:	55                   	push   %ebp
   11bf4:	89 e5                	mov    %esp,%ebp
   11bf6:	83 ec 08             	sub    $0x8,%esp
	do_default_handler(frame, "Overflow.");
   11bf9:	83 ec 08             	sub    $0x8,%esp
   11bfc:	68 a1 36 01 00       	push   $0x136a1
   11c01:	ff 75 08             	pushl  0x8(%ebp)
   11c04:	e8 10 ff ff ff       	call   11b19 <do_default_handler>
   11c09:	83 c4 10             	add    $0x10,%esp
}
   11c0c:	90                   	nop
   11c0d:	c9                   	leave  
   11c0e:	c3                   	ret    

00011c0f <do_handler_bound_range>:

void do_handler_bound_range(exception_frame_t * frame) {
   11c0f:	55                   	push   %ebp
   11c10:	89 e5                	mov    %esp,%ebp
   11c12:	83 ec 08             	sub    $0x8,%esp
	do_default_handler(frame, "BOUND Range Exceeded.");
   11c15:	83 ec 08             	sub    $0x8,%esp
   11c18:	68 ab 36 01 00       	push   $0x136ab
   11c1d:	ff 75 08             	pushl  0x8(%ebp)
   11c20:	e8 f4 fe ff ff       	call   11b19 <do_default_handler>
   11c25:	83 c4 10             	add    $0x10,%esp
}
   11c28:	90                   	nop
   11c29:	c9                   	leave  
   11c2a:	c3                   	ret    

00011c2b <do_handler_invalid_opcode>:

void do_handler_invalid_opcode(exception_frame_t * frame) {
   11c2b:	55                   	push   %ebp
   11c2c:	89 e5                	mov    %esp,%ebp
   11c2e:	83 ec 08             	sub    $0x8,%esp
	do_default_handler(frame, "Invalid Opcode.");
   11c31:	83 ec 08             	sub    $0x8,%esp
   11c34:	68 c1 36 01 00       	push   $0x136c1
   11c39:	ff 75 08             	pushl  0x8(%ebp)
   11c3c:	e8 d8 fe ff ff       	call   11b19 <do_default_handler>
   11c41:	83 c4 10             	add    $0x10,%esp
}
   11c44:	90                   	nop
   11c45:	c9                   	leave  
   11c46:	c3                   	ret    

00011c47 <do_handler_device_unavailable>:

void do_handler_device_unavailable(exception_frame_t * frame) {
   11c47:	55                   	push   %ebp
   11c48:	89 e5                	mov    %esp,%ebp
   11c4a:	83 ec 08             	sub    $0x8,%esp
	do_default_handler(frame, "Device Not Available.");
   11c4d:	83 ec 08             	sub    $0x8,%esp
   11c50:	68 d1 36 01 00       	push   $0x136d1
   11c55:	ff 75 08             	pushl  0x8(%ebp)
   11c58:	e8 bc fe ff ff       	call   11b19 <do_default_handler>
   11c5d:	83 c4 10             	add    $0x10,%esp
}
   11c60:	90                   	nop
   11c61:	c9                   	leave  
   11c62:	c3                   	ret    

00011c63 <do_handler_double_fault>:

void do_handler_double_fault(exception_frame_t * frame) {
   11c63:	55                   	push   %ebp
   11c64:	89 e5                	mov    %esp,%ebp
   11c66:	83 ec 08             	sub    $0x8,%esp
	do_default_handler(frame, "Double Fault.");
   11c69:	83 ec 08             	sub    $0x8,%esp
   11c6c:	68 e7 36 01 00       	push   $0x136e7
   11c71:	ff 75 08             	pushl  0x8(%ebp)
   11c74:	e8 a0 fe ff ff       	call   11b19 <do_default_handler>
   11c79:	83 c4 10             	add    $0x10,%esp
}
   11c7c:	90                   	nop
   11c7d:	c9                   	leave  
   11c7e:	c3                   	ret    

00011c7f <do_handler_invalid_tss>:

void do_handler_invalid_tss(exception_frame_t * frame) {
   11c7f:	55                   	push   %ebp
   11c80:	89 e5                	mov    %esp,%ebp
   11c82:	83 ec 08             	sub    $0x8,%esp
	do_default_handler(frame, "Invalid TSS");
   11c85:	83 ec 08             	sub    $0x8,%esp
   11c88:	68 f5 36 01 00       	push   $0x136f5
   11c8d:	ff 75 08             	pushl  0x8(%ebp)
   11c90:	e8 84 fe ff ff       	call   11b19 <do_default_handler>
   11c95:	83 c4 10             	add    $0x10,%esp
}
   11c98:	90                   	nop
   11c99:	c9                   	leave  
   11c9a:	c3                   	ret    

00011c9b <do_handler_segment_not_present>:

void do_handler_segment_not_present(exception_frame_t * frame) {
   11c9b:	55                   	push   %ebp
   11c9c:	89 e5                	mov    %esp,%ebp
   11c9e:	83 ec 08             	sub    $0x8,%esp
	do_default_handler(frame, "Segment Not Present.");
   11ca1:	83 ec 08             	sub    $0x8,%esp
   11ca4:	68 01 37 01 00       	push   $0x13701
   11ca9:	ff 75 08             	pushl  0x8(%ebp)
   11cac:	e8 68 fe ff ff       	call   11b19 <do_default_handler>
   11cb1:	83 c4 10             	add    $0x10,%esp
}
   11cb4:	90                   	nop
   11cb5:	c9                   	leave  
   11cb6:	c3                   	ret    

00011cb7 <do_handler_stack_segment_fault>:

void do_handler_stack_segment_fault(exception_frame_t * frame) {
   11cb7:	55                   	push   %ebp
   11cb8:	89 e5                	mov    %esp,%ebp
   11cba:	83 ec 08             	sub    $0x8,%esp
	do_default_handler(frame, "Stack-Segment Fault.");
   11cbd:	83 ec 08             	sub    $0x8,%esp
   11cc0:	68 16 37 01 00       	push   $0x13716
   11cc5:	ff 75 08             	pushl  0x8(%ebp)
   11cc8:	e8 4c fe ff ff       	call   11b19 <do_default_handler>
   11ccd:	83 c4 10             	add    $0x10,%esp
}
   11cd0:	90                   	nop
   11cd1:	c9                   	leave  
   11cd2:	c3                   	ret    

00011cd3 <do_handler_general_protection>:

void do_handler_general_protection(exception_frame_t * frame) {
   11cd3:	55                   	push   %ebp
   11cd4:	89 e5                	mov    %esp,%ebp
   11cd6:	83 ec 08             	sub    $0x8,%esp
    log_printf("--------------------------------");
   11cd9:	83 ec 0c             	sub    $0xc,%esp
   11cdc:	68 18 36 01 00       	push   $0x13618
   11ce1:	e8 67 15 00 00       	call   1324d <log_printf>
   11ce6:	83 c4 10             	add    $0x10,%esp
    log_printf("IRQ/Exception happend: General Protection.");
   11ce9:	83 ec 0c             	sub    $0xc,%esp
   11cec:	68 2c 37 01 00       	push   $0x1372c
   11cf1:	e8 57 15 00 00       	call   1324d <log_printf>
   11cf6:	83 c4 10             	add    $0x10,%esp
    if (frame->error_code & ERR_EXT) {
   11cf9:	8b 45 08             	mov    0x8(%ebp),%eax
   11cfc:	8b 40 34             	mov    0x34(%eax),%eax
   11cff:	83 e0 01             	and    $0x1,%eax
   11d02:	85 c0                	test   %eax,%eax
   11d04:	74 12                	je     11d18 <do_handler_general_protection+0x45>
        log_printf("the exception occurred during delivery of an "
   11d06:	83 ec 0c             	sub    $0xc,%esp
   11d09:	68 58 37 01 00       	push   $0x13758
   11d0e:	e8 3a 15 00 00       	call   1324d <log_printf>
   11d13:	83 c4 10             	add    $0x10,%esp
   11d16:	eb 10                	jmp    11d28 <do_handler_general_protection+0x55>
                "event external to the program, such as an interrupt"
                "or an earlier exception.");
    } else {
        log_printf("the exception occurred during delivery of a"
   11d18:	83 ec 0c             	sub    $0xc,%esp
   11d1b:	68 d4 37 01 00       	push   $0x137d4
   11d20:	e8 28 15 00 00       	call   1324d <log_printf>
   11d25:	83 c4 10             	add    $0x10,%esp
                    "software interrupt (INT n, INT3, or INTO).");
    }
    
    if (frame->error_code & ERR_IDT) {
   11d28:	8b 45 08             	mov    0x8(%ebp),%eax
   11d2b:	8b 40 34             	mov    0x34(%eax),%eax
   11d2e:	83 e0 02             	and    $0x2,%eax
   11d31:	85 c0                	test   %eax,%eax
   11d33:	74 12                	je     11d47 <do_handler_general_protection+0x74>
        log_printf("the index portion of the error code refers "
   11d35:	83 ec 0c             	sub    $0xc,%esp
   11d38:	68 2c 38 01 00       	push   $0x1382c
   11d3d:	e8 0b 15 00 00       	call   1324d <log_printf>
   11d42:	83 c4 10             	add    $0x10,%esp
   11d45:	eb 10                	jmp    11d57 <do_handler_general_protection+0x84>
                    "to a gate descriptor in the IDT");
    } else {
        log_printf("the index refers to a descriptor in the GDT");
   11d47:	83 ec 0c             	sub    $0xc,%esp
   11d4a:	68 78 38 01 00       	push   $0x13878
   11d4f:	e8 f9 14 00 00       	call   1324d <log_printf>
   11d54:	83 c4 10             	add    $0x10,%esp
    }
    
    log_printf("segment index: %d", frame->error_code & 0xFFF8);
   11d57:	8b 45 08             	mov    0x8(%ebp),%eax
   11d5a:	8b 40 34             	mov    0x34(%eax),%eax
   11d5d:	25 f8 ff 00 00       	and    $0xfff8,%eax
   11d62:	83 ec 08             	sub    $0x8,%esp
   11d65:	50                   	push   %eax
   11d66:	68 a4 38 01 00       	push   $0x138a4
   11d6b:	e8 dd 14 00 00       	call   1324d <log_printf>
   11d70:	83 c4 10             	add    $0x10,%esp

    dump_core_regs(frame);
   11d73:	83 ec 0c             	sub    $0xc,%esp
   11d76:	ff 75 08             	pushl  0x8(%ebp)
   11d79:	e8 9c fc ff ff       	call   11a1a <dump_core_regs>
   11d7e:	83 c4 10             	add    $0x10,%esp
    if (frame->cs & 0x3) {
   11d81:	8b 45 08             	mov    0x8(%ebp),%eax
   11d84:	8b 40 3c             	mov    0x3c(%eax),%eax
   11d87:	83 e0 03             	and    $0x3,%eax
   11d8a:	85 c0                	test   %eax,%eax
   11d8c:	75 07                	jne    11d95 <do_handler_general_protection+0xc2>
        //sys_exit(frame->error_code);
    } else {
        for (;;) {
            hlt();
   11d8e:	e8 65 fc ff ff       	call   119f8 <hlt>
   11d93:	eb f9                	jmp    11d8e <do_handler_general_protection+0xbb>
        }
    }
}
   11d95:	90                   	nop
   11d96:	c9                   	leave  
   11d97:	c3                   	ret    

00011d98 <do_handler_page_fault>:

void do_handler_page_fault(exception_frame_t * frame) {
   11d98:	55                   	push   %ebp
   11d99:	89 e5                	mov    %esp,%ebp
   11d9b:	83 ec 08             	sub    $0x8,%esp
    log_printf("--------------------------------");
   11d9e:	83 ec 0c             	sub    $0xc,%esp
   11da1:	68 18 36 01 00       	push   $0x13618
   11da6:	e8 a2 14 00 00       	call   1324d <log_printf>
   11dab:	83 c4 10             	add    $0x10,%esp
    log_printf("IRQ/Exception happend: Page fault.");
   11dae:	83 ec 0c             	sub    $0xc,%esp
   11db1:	68 b8 38 01 00       	push   $0x138b8
   11db6:	e8 92 14 00 00       	call   1324d <log_printf>
   11dbb:	83 c4 10             	add    $0x10,%esp
    if (frame->error_code & ERR_PAGE_P) {
   11dbe:	8b 45 08             	mov    0x8(%ebp),%eax
   11dc1:	8b 40 34             	mov    0x34(%eax),%eax
   11dc4:	83 e0 01             	and    $0x1,%eax
   11dc7:	85 c0                	test   %eax,%eax
   11dc9:	74 18                	je     11de3 <do_handler_page_fault+0x4b>
        log_printf("\tpage-level protection violation: 0x%x.", read_cr2());
   11dcb:	e8 ef fb ff ff       	call   119bf <read_cr2>
   11dd0:	83 ec 08             	sub    $0x8,%esp
   11dd3:	50                   	push   %eax
   11dd4:	68 dc 38 01 00       	push   $0x138dc
   11dd9:	e8 6f 14 00 00       	call   1324d <log_printf>
   11dde:	83 c4 10             	add    $0x10,%esp
   11de1:	eb 16                	jmp    11df9 <do_handler_page_fault+0x61>
    } else {
         log_printf("\tPage doesn't present 0x%x", read_cr2());
   11de3:	e8 d7 fb ff ff       	call   119bf <read_cr2>
   11de8:	83 ec 08             	sub    $0x8,%esp
   11deb:	50                   	push   %eax
   11dec:	68 04 39 01 00       	push   $0x13904
   11df1:	e8 57 14 00 00       	call   1324d <log_printf>
   11df6:	83 c4 10             	add    $0x10,%esp
   }
    
    if (frame->error_code & ERR_PAGE_WR) {
   11df9:	8b 45 08             	mov    0x8(%ebp),%eax
   11dfc:	8b 40 34             	mov    0x34(%eax),%eax
   11dff:	83 e0 02             	and    $0x2,%eax
   11e02:	85 c0                	test   %eax,%eax
   11e04:	74 12                	je     11e18 <do_handler_page_fault+0x80>
        log_printf("\tThe access causing the fault was a read.");
   11e06:	83 ec 0c             	sub    $0xc,%esp
   11e09:	68 20 39 01 00       	push   $0x13920
   11e0e:	e8 3a 14 00 00       	call   1324d <log_printf>
   11e13:	83 c4 10             	add    $0x10,%esp
   11e16:	eb 10                	jmp    11e28 <do_handler_page_fault+0x90>
    } else {
        log_printf("\tThe access causing the fault was a write.");
   11e18:	83 ec 0c             	sub    $0xc,%esp
   11e1b:	68 4c 39 01 00       	push   $0x1394c
   11e20:	e8 28 14 00 00       	call   1324d <log_printf>
   11e25:	83 c4 10             	add    $0x10,%esp
    }
    
    if (frame->error_code & ERR_PAGE_US) {
   11e28:	8b 45 08             	mov    0x8(%ebp),%eax
   11e2b:	8b 40 34             	mov    0x34(%eax),%eax
   11e2e:	83 e0 02             	and    $0x2,%eax
   11e31:	85 c0                	test   %eax,%eax
   11e33:	74 12                	je     11e47 <do_handler_page_fault+0xaf>
        log_printf("\tA supervisor-mode access caused the fault.");
   11e35:	83 ec 0c             	sub    $0xc,%esp
   11e38:	68 78 39 01 00       	push   $0x13978
   11e3d:	e8 0b 14 00 00       	call   1324d <log_printf>
   11e42:	83 c4 10             	add    $0x10,%esp
   11e45:	eb 10                	jmp    11e57 <do_handler_page_fault+0xbf>
    } else {
        log_printf("\tA user-mode access caused the fault.");
   11e47:	83 ec 0c             	sub    $0xc,%esp
   11e4a:	68 a4 39 01 00       	push   $0x139a4
   11e4f:	e8 f9 13 00 00       	call   1324d <log_printf>
   11e54:	83 c4 10             	add    $0x10,%esp
    }

    dump_core_regs(frame);
   11e57:	83 ec 0c             	sub    $0xc,%esp
   11e5a:	ff 75 08             	pushl  0x8(%ebp)
   11e5d:	e8 b8 fb ff ff       	call   11a1a <dump_core_regs>
   11e62:	83 c4 10             	add    $0x10,%esp
    if (frame->cs & 0x3) {
   11e65:	8b 45 08             	mov    0x8(%ebp),%eax
   11e68:	8b 40 3c             	mov    0x3c(%eax),%eax
   11e6b:	83 e0 03             	and    $0x3,%eax
   11e6e:	85 c0                	test   %eax,%eax
   11e70:	75 07                	jne    11e79 <do_handler_page_fault+0xe1>
        //sys_exit(frame->error_code);
    } else {
        for (;;) {
            hlt();
   11e72:	e8 81 fb ff ff       	call   119f8 <hlt>
   11e77:	eb f9                	jmp    11e72 <do_handler_page_fault+0xda>
        }
    }

}
   11e79:	90                   	nop
   11e7a:	c9                   	leave  
   11e7b:	c3                   	ret    

00011e7c <do_handler_fpu_error>:

void do_handler_fpu_error(exception_frame_t * frame) {
   11e7c:	55                   	push   %ebp
   11e7d:	89 e5                	mov    %esp,%ebp
   11e7f:	83 ec 08             	sub    $0x8,%esp
	do_default_handler(frame, "X87 FPU Floating Point Error.");
   11e82:	83 ec 08             	sub    $0x8,%esp
   11e85:	68 ca 39 01 00       	push   $0x139ca
   11e8a:	ff 75 08             	pushl  0x8(%ebp)
   11e8d:	e8 87 fc ff ff       	call   11b19 <do_default_handler>
   11e92:	83 c4 10             	add    $0x10,%esp
}
   11e95:	90                   	nop
   11e96:	c9                   	leave  
   11e97:	c3                   	ret    

00011e98 <do_handler_alignment_check>:

void do_handler_alignment_check(exception_frame_t * frame) {
   11e98:	55                   	push   %ebp
   11e99:	89 e5                	mov    %esp,%ebp
   11e9b:	83 ec 08             	sub    $0x8,%esp
	do_default_handler(frame, "Alignment Check.");
   11e9e:	83 ec 08             	sub    $0x8,%esp
   11ea1:	68 e8 39 01 00       	push   $0x139e8
   11ea6:	ff 75 08             	pushl  0x8(%ebp)
   11ea9:	e8 6b fc ff ff       	call   11b19 <do_default_handler>
   11eae:	83 c4 10             	add    $0x10,%esp
}
   11eb1:	90                   	nop
   11eb2:	c9                   	leave  
   11eb3:	c3                   	ret    

00011eb4 <do_handler_machine_check>:

void do_handler_machine_check(exception_frame_t * frame) {
   11eb4:	55                   	push   %ebp
   11eb5:	89 e5                	mov    %esp,%ebp
   11eb7:	83 ec 08             	sub    $0x8,%esp
	do_default_handler(frame, "Machine Check.");
   11eba:	83 ec 08             	sub    $0x8,%esp
   11ebd:	68 f9 39 01 00       	push   $0x139f9
   11ec2:	ff 75 08             	pushl  0x8(%ebp)
   11ec5:	e8 4f fc ff ff       	call   11b19 <do_default_handler>
   11eca:	83 c4 10             	add    $0x10,%esp
}
   11ecd:	90                   	nop
   11ece:	c9                   	leave  
   11ecf:	c3                   	ret    

00011ed0 <do_handler_smd_exception>:

void do_handler_smd_exception(exception_frame_t * frame) {
   11ed0:	55                   	push   %ebp
   11ed1:	89 e5                	mov    %esp,%ebp
   11ed3:	83 ec 08             	sub    $0x8,%esp
	do_default_handler(frame, "SIMD Floating Point Exception.");
   11ed6:	83 ec 08             	sub    $0x8,%esp
   11ed9:	68 08 3a 01 00       	push   $0x13a08
   11ede:	ff 75 08             	pushl  0x8(%ebp)
   11ee1:	e8 33 fc ff ff       	call   11b19 <do_default_handler>
   11ee6:	83 c4 10             	add    $0x10,%esp
}
   11ee9:	90                   	nop
   11eea:	c9                   	leave  
   11eeb:	c3                   	ret    

00011eec <do_handler_virtual_exception>:

void do_handler_virtual_exception(exception_frame_t * frame) {
   11eec:	55                   	push   %ebp
   11eed:	89 e5                	mov    %esp,%ebp
   11eef:	83 ec 08             	sub    $0x8,%esp
	do_default_handler(frame, "Virtualization Exception.");
   11ef2:	83 ec 08             	sub    $0x8,%esp
   11ef5:	68 27 3a 01 00       	push   $0x13a27
   11efa:	ff 75 08             	pushl  0x8(%ebp)
   11efd:	e8 17 fc ff ff       	call   11b19 <do_default_handler>
   11f02:	83 c4 10             	add    $0x10,%esp
}
   11f05:	90                   	nop
   11f06:	c9                   	leave  
   11f07:	c3                   	ret    

00011f08 <do_handler_control_exception>:

void do_handler_control_exception(exception_frame_t * frame) {
   11f08:	55                   	push   %ebp
   11f09:	89 e5                	mov    %esp,%ebp
   11f0b:	83 ec 08             	sub    $0x8,%esp
	do_default_handler(frame, "Virtualization Exception.");
   11f0e:	83 ec 08             	sub    $0x8,%esp
   11f11:	68 27 3a 01 00       	push   $0x13a27
   11f16:	ff 75 08             	pushl  0x8(%ebp)
   11f19:	e8 fb fb ff ff       	call   11b19 <do_default_handler>
   11f1e:	83 c4 10             	add    $0x10,%esp
}
   11f21:	90                   	nop
   11f22:	c9                   	leave  
   11f23:	c3                   	ret    

00011f24 <init_pic>:
static void init_pic(void) {
   11f24:	55                   	push   %ebp
   11f25:	89 e5                	mov    %esp,%ebp
    // 边缘触发，级联，需要配置icw4, 8086模式
    outb(PIC0_ICW1, PIC_ICW1_ALWAYS_1 | PIC_ICW1_ICW4);
   11f27:	6a 11                	push   $0x11
   11f29:	6a 20                	push   $0x20
   11f2b:	e8 62 fa ff ff       	call   11992 <outb>
   11f30:	83 c4 08             	add    $0x8,%esp

    // 对应的中断号起始序号0x20
    outb(PIC0_ICW2, IRQ_PIC_START);
   11f33:	6a 20                	push   $0x20
   11f35:	6a 21                	push   $0x21
   11f37:	e8 56 fa ff ff       	call   11992 <outb>
   11f3c:	83 c4 08             	add    $0x8,%esp

    // 主片IRQ2有从片
    outb(PIC0_ICW3, 1 << 2);
   11f3f:	6a 04                	push   $0x4
   11f41:	6a 21                	push   $0x21
   11f43:	e8 4a fa ff ff       	call   11992 <outb>
   11f48:	83 c4 08             	add    $0x8,%esp

    // 普通全嵌套、非缓冲、非自动结束、8086模式
    outb(PIC0_ICW4, PIC_ICW4_8086);
   11f4b:	6a 01                	push   $0x1
   11f4d:	6a 21                	push   $0x21
   11f4f:	e8 3e fa ff ff       	call   11992 <outb>
   11f54:	83 c4 08             	add    $0x8,%esp

    // 边缘触发，级联，需要配置icw4, 8086模式
    outb(PIC1_ICW1, PIC_ICW1_ICW4 | PIC_ICW1_ALWAYS_1);
   11f57:	6a 11                	push   $0x11
   11f59:	68 a0 00 00 00       	push   $0xa0
   11f5e:	e8 2f fa ff ff       	call   11992 <outb>
   11f63:	83 c4 08             	add    $0x8,%esp

    // 起始中断序号，要加上8
    outb(PIC1_ICW2, IRQ_PIC_START + 8);
   11f66:	6a 28                	push   $0x28
   11f68:	68 a1 00 00 00       	push   $0xa1
   11f6d:	e8 20 fa ff ff       	call   11992 <outb>
   11f72:	83 c4 08             	add    $0x8,%esp

    // 没有从片，连接到主片的IRQ2上
    outb(PIC1_ICW3, 2);
   11f75:	6a 02                	push   $0x2
   11f77:	68 a1 00 00 00       	push   $0xa1
   11f7c:	e8 11 fa ff ff       	call   11992 <outb>
   11f81:	83 c4 08             	add    $0x8,%esp

    // 普通全嵌套、非缓冲、非自动结束、8086模式
    outb(PIC1_ICW4, PIC_ICW4_8086);
   11f84:	6a 01                	push   $0x1
   11f86:	68 a1 00 00 00       	push   $0xa1
   11f8b:	e8 02 fa ff ff       	call   11992 <outb>
   11f90:	83 c4 08             	add    $0x8,%esp

    // 禁止所有中断, 允许从PIC1传来的中断
    outb(PIC0_IMR, 0xFF & ~(1 << 2));
   11f93:	68 fb 00 00 00       	push   $0xfb
   11f98:	6a 21                	push   $0x21
   11f9a:	e8 f3 f9 ff ff       	call   11992 <outb>
   11f9f:	83 c4 08             	add    $0x8,%esp
    outb(PIC1_IMR, 0xFF);
   11fa2:	68 ff 00 00 00       	push   $0xff
   11fa7:	68 a1 00 00 00       	push   $0xa1
   11fac:	e8 e1 f9 ff ff       	call   11992 <outb>
   11fb1:	83 c4 08             	add    $0x8,%esp
}
   11fb4:	90                   	nop
   11fb5:	c9                   	leave  
   11fb6:	c3                   	ret    

00011fb7 <irq_init>:
void irq_init(void){
   11fb7:	55                   	push   %ebp
   11fb8:	89 e5                	mov    %esp,%ebp
   11fba:	83 ec 18             	sub    $0x18,%esp
    for(int i = 0;i < IDE_TABLE_NR; i++){
   11fbd:	c7 45 f4 00 00 00 00 	movl   $0x0,-0xc(%ebp)
   11fc4:	eb 25                	jmp    11feb <irq_init+0x34>
        gate_desc_set(idt_table + i, KERNEL_SELECTOR_CS, (uint32_t)exception_handler_unknown, 
   11fc6:	ba 28 00 01 00       	mov    $0x10028,%edx
   11fcb:	8b 45 f4             	mov    -0xc(%ebp),%eax
   11fce:	c1 e0 03             	shl    $0x3,%eax
   11fd1:	05 e0 ed 01 00       	add    $0x1ede0,%eax
   11fd6:	68 00 8e 00 00       	push   $0x8e00
   11fdb:	52                   	push   %edx
   11fdc:	6a 08                	push   $0x8
   11fde:	50                   	push   %eax
   11fdf:	e8 fa f7 ff ff       	call   117de <gate_desc_set>
   11fe4:	83 c4 10             	add    $0x10,%esp
    for(int i = 0;i < IDE_TABLE_NR; i++){
   11fe7:	83 45 f4 01          	addl   $0x1,-0xc(%ebp)
   11feb:	83 7d f4 7f          	cmpl   $0x7f,-0xc(%ebp)
   11fef:	7e d5                	jle    11fc6 <irq_init+0xf>
        GATE_P_PRESENT | GATE_DPL0 | GATE_TYPE_IDT);
    }

   // 设置异常处理接口
    irq_install(IRQ0_DE, exception_handler_divider);
   11ff1:	83 ec 08             	sub    $0x8,%esp
   11ff4:	68 47 00 01 00       	push   $0x10047
   11ff9:	6a 00                	push   $0x0
   11ffb:	e8 77 01 00 00       	call   12177 <irq_install>
   12000:	83 c4 10             	add    $0x10,%esp
	irq_install(IRQ1_DB, exception_handler_Debug);
   12003:	83 ec 08             	sub    $0x8,%esp
   12006:	68 66 00 01 00       	push   $0x10066
   1200b:	6a 01                	push   $0x1
   1200d:	e8 65 01 00 00       	call   12177 <irq_install>
   12012:	83 c4 10             	add    $0x10,%esp
	irq_install(IRQ2_NMI, exception_handler_NMI);
   12015:	83 ec 08             	sub    $0x8,%esp
   12018:	68 85 00 01 00       	push   $0x10085
   1201d:	6a 02                	push   $0x2
   1201f:	e8 53 01 00 00       	call   12177 <irq_install>
   12024:	83 c4 10             	add    $0x10,%esp
	irq_install(IRQ3_BP, exception_handler_breakpoint);
   12027:	83 ec 08             	sub    $0x8,%esp
   1202a:	68 a4 00 01 00       	push   $0x100a4
   1202f:	6a 03                	push   $0x3
   12031:	e8 41 01 00 00       	call   12177 <irq_install>
   12036:	83 c4 10             	add    $0x10,%esp
	irq_install(IRQ4_OF, exception_handler_overflow);
   12039:	83 ec 08             	sub    $0x8,%esp
   1203c:	68 c3 00 01 00       	push   $0x100c3
   12041:	6a 04                	push   $0x4
   12043:	e8 2f 01 00 00       	call   12177 <irq_install>
   12048:	83 c4 10             	add    $0x10,%esp
	irq_install(IRQ5_BR, exception_handler_bound_range);
   1204b:	83 ec 08             	sub    $0x8,%esp
   1204e:	68 e2 00 01 00       	push   $0x100e2
   12053:	6a 05                	push   $0x5
   12055:	e8 1d 01 00 00       	call   12177 <irq_install>
   1205a:	83 c4 10             	add    $0x10,%esp
	irq_install(IRQ6_UD, exception_handler_invalid_opcode);
   1205d:	83 ec 08             	sub    $0x8,%esp
   12060:	68 01 01 01 00       	push   $0x10101
   12065:	6a 06                	push   $0x6
   12067:	e8 0b 01 00 00       	call   12177 <irq_install>
   1206c:	83 c4 10             	add    $0x10,%esp
	irq_install(IRQ7_NM, exception_handler_device_unavailable);
   1206f:	83 ec 08             	sub    $0x8,%esp
   12072:	68 20 01 01 00       	push   $0x10120
   12077:	6a 07                	push   $0x7
   12079:	e8 f9 00 00 00       	call   12177 <irq_install>
   1207e:	83 c4 10             	add    $0x10,%esp
	irq_install(IRQ8_DF, exception_handler_double_fault);
   12081:	83 ec 08             	sub    $0x8,%esp
   12084:	68 3f 01 01 00       	push   $0x1013f
   12089:	6a 08                	push   $0x8
   1208b:	e8 e7 00 00 00       	call   12177 <irq_install>
   12090:	83 c4 10             	add    $0x10,%esp
	irq_install(IRQ10_TS, exception_handler_invalid_tss);
   12093:	83 ec 08             	sub    $0x8,%esp
   12096:	68 5c 01 01 00       	push   $0x1015c
   1209b:	6a 0a                	push   $0xa
   1209d:	e8 d5 00 00 00       	call   12177 <irq_install>
   120a2:	83 c4 10             	add    $0x10,%esp
	irq_install(IRQ11_NP, exception_handler_segment_not_present);
   120a5:	83 ec 08             	sub    $0x8,%esp
   120a8:	68 79 01 01 00       	push   $0x10179
   120ad:	6a 0b                	push   $0xb
   120af:	e8 c3 00 00 00       	call   12177 <irq_install>
   120b4:	83 c4 10             	add    $0x10,%esp
	irq_install(IRQ12_SS, exception_handler_stack_segment_fault);
   120b7:	83 ec 08             	sub    $0x8,%esp
   120ba:	68 96 01 01 00       	push   $0x10196
   120bf:	6a 0c                	push   $0xc
   120c1:	e8 b1 00 00 00       	call   12177 <irq_install>
   120c6:	83 c4 10             	add    $0x10,%esp
	irq_install(IRQ13_GP, exception_handler_general_protection);
   120c9:	83 ec 08             	sub    $0x8,%esp
   120cc:	68 b3 01 01 00       	push   $0x101b3
   120d1:	6a 0d                	push   $0xd
   120d3:	e8 9f 00 00 00       	call   12177 <irq_install>
   120d8:	83 c4 10             	add    $0x10,%esp
	irq_install(IRQ14_PF, exception_handler_page_fault);
   120db:	83 ec 08             	sub    $0x8,%esp
   120de:	68 d0 01 01 00       	push   $0x101d0
   120e3:	6a 0e                	push   $0xe
   120e5:	e8 8d 00 00 00       	call   12177 <irq_install>
   120ea:	83 c4 10             	add    $0x10,%esp
	irq_install(IRQ16_MF, exception_handler_fpu_error);
   120ed:	83 ec 08             	sub    $0x8,%esp
   120f0:	68 ed 01 01 00       	push   $0x101ed
   120f5:	6a 10                	push   $0x10
   120f7:	e8 7b 00 00 00       	call   12177 <irq_install>
   120fc:	83 c4 10             	add    $0x10,%esp
	irq_install(IRQ17_AC, exception_handler_alignment_check);
   120ff:	83 ec 08             	sub    $0x8,%esp
   12102:	68 0c 02 01 00       	push   $0x1020c
   12107:	6a 11                	push   $0x11
   12109:	e8 69 00 00 00       	call   12177 <irq_install>
   1210e:	83 c4 10             	add    $0x10,%esp
	irq_install(IRQ18_MC, exception_handler_machine_check);
   12111:	83 ec 08             	sub    $0x8,%esp
   12114:	68 29 02 01 00       	push   $0x10229
   12119:	6a 12                	push   $0x12
   1211b:	e8 57 00 00 00       	call   12177 <irq_install>
   12120:	83 c4 10             	add    $0x10,%esp
	irq_install(IRQ19_XM, exception_handler_smd_exception);
   12123:	83 ec 08             	sub    $0x8,%esp
   12126:	68 48 02 01 00       	push   $0x10248
   1212b:	6a 13                	push   $0x13
   1212d:	e8 45 00 00 00       	call   12177 <irq_install>
   12132:	83 c4 10             	add    $0x10,%esp
	irq_install(IRQ20_VE, exception_handler_virtual_exception);
   12135:	83 ec 08             	sub    $0x8,%esp
   12138:	68 67 02 01 00       	push   $0x10267
   1213d:	6a 14                	push   $0x14
   1213f:	e8 33 00 00 00       	call   12177 <irq_install>
   12144:	83 c4 10             	add    $0x10,%esp
    irq_install(IRQ21_cp, exception_handler_control_exception);
   12147:	83 ec 08             	sub    $0x8,%esp
   1214a:	68 86 02 01 00       	push   $0x10286
   1214f:	6a 15                	push   $0x15
   12151:	e8 21 00 00 00       	call   12177 <irq_install>
   12156:	83 c4 10             	add    $0x10,%esp
    lidt((uint32_t)idt_table, sizeof(idt_table));
   12159:	b8 e0 ed 01 00       	mov    $0x1ede0,%eax
   1215e:	83 ec 08             	sub    $0x8,%esp
   12161:	68 00 04 00 00       	push   $0x400
   12166:	50                   	push   %eax
   12167:	e8 64 f8 ff ff       	call   119d0 <lidt>
   1216c:	83 c4 10             	add    $0x10,%esp

    // 初始化pic 控制器
	init_pic();
   1216f:	e8 b0 fd ff ff       	call   11f24 <init_pic>
}
   12174:	90                   	nop
   12175:	c9                   	leave  
   12176:	c3                   	ret    

00012177 <irq_install>:

/**
 * @brief 安装中断或异常处理程序
 */
int irq_install(int irq_num, irq_handler_t handler) {
   12177:	55                   	push   %ebp
   12178:	89 e5                	mov    %esp,%ebp
   1217a:	83 ec 08             	sub    $0x8,%esp
	if (irq_num >= IDE_TABLE_NR) {
   1217d:	83 7d 08 7f          	cmpl   $0x7f,0x8(%ebp)
   12181:	7e 07                	jle    1218a <irq_install+0x13>
		return -1;
   12183:	b8 ff ff ff ff       	mov    $0xffffffff,%eax
   12188:	eb 25                	jmp    121af <irq_install+0x38>
	}

    gate_desc_set(idt_table + irq_num, KERNEL_SELECTOR_CS, (uint32_t) handler,
   1218a:	8b 45 0c             	mov    0xc(%ebp),%eax
   1218d:	8b 55 08             	mov    0x8(%ebp),%edx
   12190:	c1 e2 03             	shl    $0x3,%edx
   12193:	81 c2 e0 ed 01 00    	add    $0x1ede0,%edx
   12199:	68 00 8e 00 00       	push   $0x8e00
   1219e:	50                   	push   %eax
   1219f:	6a 08                	push   $0x8
   121a1:	52                   	push   %edx
   121a2:	e8 37 f6 ff ff       	call   117de <gate_desc_set>
   121a7:	83 c4 10             	add    $0x10,%esp
                  GATE_P_PRESENT | GATE_DPL0 | GATE_TYPE_IDT);
	return 0;
   121aa:	b8 00 00 00 00       	mov    $0x0,%eax
}
   121af:	c9                   	leave  
   121b0:	c3                   	ret    

000121b1 <irq_enable>:


void irq_enable(int irq_num) {
   121b1:	55                   	push   %ebp
   121b2:	89 e5                	mov    %esp,%ebp
   121b4:	53                   	push   %ebx
   121b5:	83 ec 10             	sub    $0x10,%esp
    if (irq_num < IRQ_PIC_START) {
   121b8:	83 7d 08 1f          	cmpl   $0x1f,0x8(%ebp)
   121bc:	7e 78                	jle    12236 <irq_enable+0x85>
        return;
    }

    irq_num -= IRQ_PIC_START;
   121be:	83 6d 08 20          	subl   $0x20,0x8(%ebp)
    if (irq_num < 8) {//对应第一块芯片
   121c2:	83 7d 08 07          	cmpl   $0x7,0x8(%ebp)
   121c6:	7f 32                	jg     121fa <irq_enable+0x49>
        uint8_t mask = inb(PIC0_IMR) & ~(1 << irq_num);
   121c8:	6a 21                	push   $0x21
   121ca:	e8 a6 f7 ff ff       	call   11975 <inb>
   121cf:	83 c4 04             	add    $0x4,%esp
   121d2:	89 c2                	mov    %eax,%edx
   121d4:	8b 45 08             	mov    0x8(%ebp),%eax
   121d7:	bb 01 00 00 00       	mov    $0x1,%ebx
   121dc:	89 c1                	mov    %eax,%ecx
   121de:	d3 e3                	shl    %cl,%ebx
   121e0:	89 d8                	mov    %ebx,%eax
   121e2:	f7 d0                	not    %eax
   121e4:	21 d0                	and    %edx,%eax
   121e6:	88 45 fa             	mov    %al,-0x6(%ebp)
        outb(PIC0_IMR, mask);
   121e9:	0f b6 45 fa          	movzbl -0x6(%ebp),%eax
   121ed:	50                   	push   %eax
   121ee:	6a 21                	push   $0x21
   121f0:	e8 9d f7 ff ff       	call   11992 <outb>
   121f5:	83 c4 08             	add    $0x8,%esp
   121f8:	eb 3d                	jmp    12237 <irq_enable+0x86>
    } else {
        irq_num -= 8;
   121fa:	83 6d 08 08          	subl   $0x8,0x8(%ebp)
        uint8_t mask = inb(PIC1_IMR) & ~(1 << irq_num);
   121fe:	68 a1 00 00 00       	push   $0xa1
   12203:	e8 6d f7 ff ff       	call   11975 <inb>
   12208:	83 c4 04             	add    $0x4,%esp
   1220b:	89 c2                	mov    %eax,%edx
   1220d:	8b 45 08             	mov    0x8(%ebp),%eax
   12210:	bb 01 00 00 00       	mov    $0x1,%ebx
   12215:	89 c1                	mov    %eax,%ecx
   12217:	d3 e3                	shl    %cl,%ebx
   12219:	89 d8                	mov    %ebx,%eax
   1221b:	f7 d0                	not    %eax
   1221d:	21 d0                	and    %edx,%eax
   1221f:	88 45 fb             	mov    %al,-0x5(%ebp)
        outb(PIC1_IMR, mask);
   12222:	0f b6 45 fb          	movzbl -0x5(%ebp),%eax
   12226:	50                   	push   %eax
   12227:	68 a1 00 00 00       	push   $0xa1
   1222c:	e8 61 f7 ff ff       	call   11992 <outb>
   12231:	83 c4 08             	add    $0x8,%esp
   12234:	eb 01                	jmp    12237 <irq_enable+0x86>
        return;
   12236:	90                   	nop
    }
}
   12237:	8b 5d fc             	mov    -0x4(%ebp),%ebx
   1223a:	c9                   	leave  
   1223b:	c3                   	ret    

0001223c <irq_disable>:

void irq_disable(int irq_num) {
   1223c:	55                   	push   %ebp
   1223d:	89 e5                	mov    %esp,%ebp
   1223f:	53                   	push   %ebx
   12240:	83 ec 10             	sub    $0x10,%esp
    if (irq_num < IRQ_PIC_START) {
   12243:	83 7d 08 1f          	cmpl   $0x1f,0x8(%ebp)
   12247:	7e 74                	jle    122bd <irq_disable+0x81>
        return;
    }

    irq_num -= IRQ_PIC_START;
   12249:	83 6d 08 20          	subl   $0x20,0x8(%ebp)
    if (irq_num < 8) {
   1224d:	83 7d 08 07          	cmpl   $0x7,0x8(%ebp)
   12251:	7f 30                	jg     12283 <irq_disable+0x47>
        uint8_t mask = inb(PIC0_IMR) | (1 << irq_num);
   12253:	6a 21                	push   $0x21
   12255:	e8 1b f7 ff ff       	call   11975 <inb>
   1225a:	83 c4 04             	add    $0x4,%esp
   1225d:	89 c3                	mov    %eax,%ebx
   1225f:	8b 45 08             	mov    0x8(%ebp),%eax
   12262:	ba 01 00 00 00       	mov    $0x1,%edx
   12267:	89 c1                	mov    %eax,%ecx
   12269:	d3 e2                	shl    %cl,%edx
   1226b:	89 d0                	mov    %edx,%eax
   1226d:	09 d8                	or     %ebx,%eax
   1226f:	88 45 fa             	mov    %al,-0x6(%ebp)
        outb(PIC0_IMR, mask);
   12272:	0f b6 45 fa          	movzbl -0x6(%ebp),%eax
   12276:	50                   	push   %eax
   12277:	6a 21                	push   $0x21
   12279:	e8 14 f7 ff ff       	call   11992 <outb>
   1227e:	83 c4 08             	add    $0x8,%esp
   12281:	eb 3b                	jmp    122be <irq_disable+0x82>
    } else {
        irq_num -= 8;
   12283:	83 6d 08 08          	subl   $0x8,0x8(%ebp)
        uint8_t mask = inb(PIC1_IMR) | (1 << irq_num);
   12287:	68 a1 00 00 00       	push   $0xa1
   1228c:	e8 e4 f6 ff ff       	call   11975 <inb>
   12291:	83 c4 04             	add    $0x4,%esp
   12294:	89 c3                	mov    %eax,%ebx
   12296:	8b 45 08             	mov    0x8(%ebp),%eax
   12299:	ba 01 00 00 00       	mov    $0x1,%edx
   1229e:	89 c1                	mov    %eax,%ecx
   122a0:	d3 e2                	shl    %cl,%edx
   122a2:	89 d0                	mov    %edx,%eax
   122a4:	09 d8                	or     %ebx,%eax
   122a6:	88 45 fb             	mov    %al,-0x5(%ebp)
        outb(PIC1_IMR, mask);
   122a9:	0f b6 45 fb          	movzbl -0x5(%ebp),%eax
   122ad:	50                   	push   %eax
   122ae:	68 a1 00 00 00       	push   $0xa1
   122b3:	e8 da f6 ff ff       	call   11992 <outb>
   122b8:	83 c4 08             	add    $0x8,%esp
   122bb:	eb 01                	jmp    122be <irq_disable+0x82>
        return;
   122bd:	90                   	nop
    }
}
   122be:	8b 5d fc             	mov    -0x4(%ebp),%ebx
   122c1:	c9                   	leave  
   122c2:	c3                   	ret    

000122c3 <irq_disable_global>:

void irq_disable_global(void) {
   122c3:	55                   	push   %ebp
   122c4:	89 e5                	mov    %esp,%ebp
    cli();//关中断
   122c6:	e8 e6 f6 ff ff       	call   119b1 <cli>
}
   122cb:	90                   	nop
   122cc:	5d                   	pop    %ebp
   122cd:	c3                   	ret    

000122ce <irq_enable_global>:

void irq_enable_global(void) {
   122ce:	55                   	push   %ebp
   122cf:	89 e5                	mov    %esp,%ebp
    sti();
   122d1:	e8 e2 f6 ff ff       	call   119b8 <sti>
}
   122d6:	90                   	nop
   122d7:	5d                   	pop    %ebp
   122d8:	c3                   	ret    

000122d9 <irq_enter_protection>:

/**
 * @brief 进入中断保护
 */
irq_state_t irq_enter_protection (void) {
   122d9:	55                   	push   %ebp
   122da:	89 e5                	mov    %esp,%ebp
   122dc:	83 ec 10             	sub    $0x10,%esp
    irq_state_t state = read_eflags();
   122df:	e8 1b f7 ff ff       	call   119ff <read_eflags>
   122e4:	89 45 fc             	mov    %eax,-0x4(%ebp)
    irq_disable_global();
   122e7:	e8 d7 ff ff ff       	call   122c3 <irq_disable_global>
    return state;
   122ec:	8b 45 fc             	mov    -0x4(%ebp),%eax
    //保存之前的状态
}
   122ef:	c9                   	leave  
   122f0:	c3                   	ret    

000122f1 <irq_leave_protection>:

/**
 * @brief 退出中断保护
 */
void irq_leave_protection (irq_state_t state) {
   122f1:	55                   	push   %ebp
   122f2:	89 e5                	mov    %esp,%ebp
    write_eflags(state);
   122f4:	ff 75 08             	pushl  0x8(%ebp)
   122f7:	e8 13 f7 ff ff       	call   11a0f <write_eflags>
   122fc:	83 c4 04             	add    $0x4,%esp
}
   122ff:	90                   	nop
   12300:	c9                   	leave  
   12301:	c3                   	ret    

00012302 <pic_send_eoi>:


void pic_send_eoi(int irq_num) {
   12302:	55                   	push   %ebp
   12303:	89 e5                	mov    %esp,%ebp
    irq_num -= IRQ_PIC_START;
   12305:	83 6d 08 20          	subl   $0x20,0x8(%ebp)

    // 从片也可能需要发送EOI
    if (irq_num >= 8) {
   12309:	83 7d 08 07          	cmpl   $0x7,0x8(%ebp)
   1230d:	7e 0f                	jle    1231e <pic_send_eoi+0x1c>
        outb(PIC1_OCW2, PIC_OCW2_EOI);
   1230f:	6a 20                	push   $0x20
   12311:	68 a0 00 00 00       	push   $0xa0
   12316:	e8 77 f6 ff ff       	call   11992 <outb>
   1231b:	83 c4 08             	add    $0x8,%esp
    }

    outb(PIC0_OCW2, PIC_OCW2_EOI);
   1231e:	6a 20                	push   $0x20
   12320:	6a 20                	push   $0x20
   12322:	e8 6b f6 ff ff       	call   11992 <outb>
   12327:	83 c4 08             	add    $0x8,%esp
}
   1232a:	90                   	nop
   1232b:	c9                   	leave  
   1232c:	c3                   	ret    

0001232d <outb>:
static inline void outb(uint16_t port, uint8_t data) {
   1232d:	55                   	push   %ebp
   1232e:	89 e5                	mov    %esp,%ebp
   12330:	83 ec 08             	sub    $0x8,%esp
   12333:	8b 55 08             	mov    0x8(%ebp),%edx
   12336:	8b 45 0c             	mov    0xc(%ebp),%eax
   12339:	66 89 55 fc          	mov    %dx,-0x4(%ebp)
   1233d:	88 45 f8             	mov    %al,-0x8(%ebp)
	__asm__ __volatile__("outb %[v], %[p]" : : [p]"d" (port), [v]"a" (data));
   12340:	0f b7 55 fc          	movzwl -0x4(%ebp),%edx
   12344:	0f b6 45 f8          	movzbl -0x8(%ebp),%eax
   12348:	ee                   	out    %al,(%dx)
}
   12349:	90                   	nop
   1234a:	c9                   	leave  
   1234b:	c3                   	ret    

0001234c <do_handler_timer>:
static uint32_t sys_tick;						// 系统启动后的tick数量

/**
 * 定时器中断处理函数
 */
void do_handler_timer (exception_frame_t *frame) {
   1234c:	55                   	push   %ebp
   1234d:	89 e5                	mov    %esp,%ebp
   1234f:	83 ec 08             	sub    $0x8,%esp
    sys_tick++;
   12352:	a1 e0 f1 01 00       	mov    0x1f1e0,%eax
   12357:	83 c0 01             	add    $0x1,%eax
   1235a:	a3 e0 f1 01 00       	mov    %eax,0x1f1e0

    // 先发EOI，而不是放在最后
    // 放最后将从任务中切换出去之后，除非任务再切换回来才能继续噢应
    pic_send_eoi(IRQ0_TIMER);
   1235f:	83 ec 0c             	sub    $0xc,%esp
   12362:	6a 20                	push   $0x20
   12364:	e8 99 ff ff ff       	call   12302 <pic_send_eoi>
   12369:	83 c4 10             	add    $0x10,%esp

    task_time_tick();
   1236c:	e8 f5 f1 ff ff       	call   11566 <task_time_tick>
}
   12371:	90                   	nop
   12372:	c9                   	leave  
   12373:	c3                   	ret    

00012374 <init_pit>:

/**
 * 初始化硬件定时器
 */
static void init_pit (void) {
   12374:	55                   	push   %ebp
   12375:	89 e5                	mov    %esp,%ebp
   12377:	83 ec 18             	sub    $0x18,%esp
    uint32_t reload_count = PIT_OSC_FREQ * OS_TICK_MS/1000;
   1237a:	c7 45 f4 9b 2e 00 00 	movl   $0x2e9b,-0xc(%ebp)

    outb(PIT_COMMAND_MODE_PORT, PIT_CHANNLE0 | PIT_LOAD_LOHI | PIT_MODE3);
   12381:	6a 36                	push   $0x36
   12383:	6a 43                	push   $0x43
   12385:	e8 a3 ff ff ff       	call   1232d <outb>
   1238a:	83 c4 08             	add    $0x8,%esp
    outb(PIT_CHANNEL0_DATA_PORT, reload_count & 0xFF);   // 加载低8位
   1238d:	8b 45 f4             	mov    -0xc(%ebp),%eax
   12390:	0f b6 c0             	movzbl %al,%eax
   12393:	50                   	push   %eax
   12394:	6a 40                	push   $0x40
   12396:	e8 92 ff ff ff       	call   1232d <outb>
   1239b:	83 c4 08             	add    $0x8,%esp
    outb(PIT_CHANNEL0_DATA_PORT, (reload_count >> 8) & 0xFF); // 再加载高8位
   1239e:	8b 45 f4             	mov    -0xc(%ebp),%eax
   123a1:	c1 e8 08             	shr    $0x8,%eax
   123a4:	0f b6 c0             	movzbl %al,%eax
   123a7:	50                   	push   %eax
   123a8:	6a 40                	push   $0x40
   123aa:	e8 7e ff ff ff       	call   1232d <outb>
   123af:	83 c4 08             	add    $0x8,%esp

    irq_install(IRQ0_TIMER, (irq_handler_t)exception_handler_timer);
   123b2:	83 ec 08             	sub    $0x8,%esp
   123b5:	68 a3 02 01 00       	push   $0x102a3
   123ba:	6a 20                	push   $0x20
   123bc:	e8 b6 fd ff ff       	call   12177 <irq_install>
   123c1:	83 c4 10             	add    $0x10,%esp
    irq_enable(IRQ0_TIMER);
   123c4:	83 ec 0c             	sub    $0xc,%esp
   123c7:	6a 20                	push   $0x20
   123c9:	e8 e3 fd ff ff       	call   121b1 <irq_enable>
   123ce:	83 c4 10             	add    $0x10,%esp
}
   123d1:	90                   	nop
   123d2:	c9                   	leave  
   123d3:	c3                   	ret    

000123d4 <time_init>:

/**
 * 定时器初始化
 */
void time_init (void) {
   123d4:	55                   	push   %ebp
   123d5:	89 e5                	mov    %esp,%ebp
   123d7:	83 ec 08             	sub    $0x8,%esp
    sys_tick = 0;
   123da:	c7 05 e0 f1 01 00 00 	movl   $0x0,0x1f1e0
   123e1:	00 00 00 

    init_pit();
   123e4:	e8 8b ff ff ff       	call   12374 <init_pit>
}
   123e9:	90                   	nop
   123ea:	c9                   	leave  
   123eb:	c3                   	ret    

000123ec <kernel_init>:
#include "tools/log.h"
#include "tools/klib.h"
#include "os_cfg.h"
#include "core/task.h"
#include "core/memory.h"
void kernel_init(boot_info_t* boot_info){
   123ec:	55                   	push   %ebp
   123ed:	89 e5                	mov    %esp,%ebp
   123ef:	83 ec 08             	sub    $0x8,%esp
    
    cpu_init();
   123f2:	e8 27 f5 ff ff       	call   1191e <cpu_init>
    log_init();
   123f7:	e8 c9 0d 00 00       	call   131c5 <log_init>
    memory_init(boot_info);
   123fc:	83 ec 0c             	sub    $0xc,%esp
   123ff:	ff 75 08             	pushl  0x8(%ebp)
   12402:	e8 d4 e8 ff ff       	call   10cdb <memory_init>
   12407:	83 c4 10             	add    $0x10,%esp
    irq_init();
   1240a:	e8 a8 fb ff ff       	call   11fb7 <irq_init>
    time_init();
   1240f:	e8 c0 ff ff ff       	call   123d4 <time_init>
    task_manager_init();
   12414:	e8 51 ef ff ff       	call   1136a <task_manager_init>
}
   12419:	90                   	nop
   1241a:	c9                   	leave  
   1241b:	c3                   	ret    

0001241c <move_to_first_task>:


void move_to_first_task (void){
   1241c:	55                   	push   %ebp
   1241d:	89 e5                	mov    %esp,%ebp
   1241f:	56                   	push   %esi
   12420:	53                   	push   %ebx
   12421:	83 ec 10             	sub    $0x10,%esp
    // 不能直接用Jmp far进入，因为当前特权级0，不能跳到低特权级的代码
    // 下面的iret后，还需要手动加载ds, fs, es等寄存器值，iret不会自动加载
    // 注意，运行下面的代码可能会产生异常：段保护异常或页保护异常。
    // 可根据产生的异常类型和错误码，并结合手册来找到问题所在
    task_t * curr = task_current();
   12424:	e8 77 f0 ff ff       	call   114a0 <task_current>
   12429:	89 45 f4             	mov    %eax,-0xc(%ebp)
    ASSERT(curr != 0);
   1242c:	83 7d f4 00          	cmpl   $0x0,-0xc(%ebp)
   12430:	75 19                	jne    1244b <move_to_first_task+0x2f>
   12432:	68 44 3a 01 00       	push   $0x13a44
   12437:	68 a4 3a 01 00       	push   $0x13aa4
   1243c:	6a 1d                	push   $0x1d
   1243e:	68 50 3a 01 00       	push   $0x13a50
   12443:	e8 13 0b 00 00       	call   12f5b <panic>
   12448:	83 c4 10             	add    $0x10,%esp

    tss_t * tss = &(curr->tss);
   1244b:	8b 45 f4             	mov    -0xc(%ebp),%eax
   1244e:	83 c0 44             	add    $0x44,%eax
   12451:	89 45 f0             	mov    %eax,-0x10(%ebp)
        "push %[ss]\n\t"			// SS
        "push %[esp]\n\t"			// ESP
        "push %[eflags]\n\t"           // EFLAGS
        "push %[cs]\n\t"			// CS
        "push %[eip]\n\t"		    // ip
        "iret\n\t"::[ss]"r"(tss->ss),  [esp]"r"(tss->esp), [eflags]"r"(tss->eflags),
   12454:	8b 45 f0             	mov    -0x10(%ebp),%eax
   12457:	8b 40 50             	mov    0x50(%eax),%eax
   1245a:	8b 55 f0             	mov    -0x10(%ebp),%edx
   1245d:	8b 52 38             	mov    0x38(%edx),%edx
   12460:	8b 4d f0             	mov    -0x10(%ebp),%ecx
   12463:	8b 49 24             	mov    0x24(%ecx),%ecx
        [cs]"r"(tss->cs), [eip]"r"(tss->eip));
   12466:	8b 5d f0             	mov    -0x10(%ebp),%ebx
   12469:	8b 5b 4c             	mov    0x4c(%ebx),%ebx
   1246c:	8b 75 f0             	mov    -0x10(%ebp),%esi
   1246f:	8b 76 20             	mov    0x20(%esi),%esi
    __asm__ __volatile__(
   12472:	50                   	push   %eax
   12473:	52                   	push   %edx
   12474:	51                   	push   %ecx
   12475:	53                   	push   %ebx
   12476:	56                   	push   %esi
   12477:	cf                   	iret   
};
   12478:	90                   	nop
   12479:	8d 65 f8             	lea    -0x8(%ebp),%esp
   1247c:	5b                   	pop    %ebx
   1247d:	5e                   	pop    %esi
   1247e:	5d                   	pop    %ebp
   1247f:	c3                   	ret    

00012480 <init_main>:

void init_main(void){
   12480:	55                   	push   %ebp
   12481:	89 e5                	mov    %esp,%ebp
   12483:	83 ec 08             	sub    $0x8,%esp
    log_printf("Kernel is running....");
   12486:	83 ec 0c             	sub    $0xc,%esp
   12489:	68 7c 3a 01 00       	push   $0x13a7c
   1248e:	e8 ba 0d 00 00       	call   1324d <log_printf>
   12493:	83 c4 10             	add    $0x10,%esp
    log_printf("Version: %s",OS_VERSION);
   12496:	83 ec 08             	sub    $0x8,%esp
   12499:	68 92 3a 01 00       	push   $0x13a92
   1249e:	68 98 3a 01 00       	push   $0x13a98
   124a3:	e8 a5 0d 00 00       	call   1324d <log_printf>
   124a8:	83 c4 10             	add    $0x10,%esp

    task_first_init();
   124ab:	e8 8a ed ff ff       	call   1123a <task_first_init>
    move_to_first_task();
   124b0:	e8 67 ff ff ff       	call   1241c <move_to_first_task>
   124b5:	90                   	nop
   124b6:	c9                   	leave  
   124b7:	c3                   	ret    

000124b8 <list_count>:
static inline int list_count(list_t *list) {
   124b8:	55                   	push   %ebp
   124b9:	89 e5                	mov    %esp,%ebp
    return list->count;
   124bb:	8b 45 08             	mov    0x8(%ebp),%eax
   124be:	8b 40 08             	mov    0x8(%eax),%eax
}
   124c1:	5d                   	pop    %ebp
   124c2:	c3                   	ret    

000124c3 <mutex_init>:
#include "ipc/mutex.h"

/**
 * 锁初始化
 */
void mutex_init (mutex_t * mutex) {
   124c3:	55                   	push   %ebp
   124c4:	89 e5                	mov    %esp,%ebp
   124c6:	83 ec 08             	sub    $0x8,%esp
    mutex->locked_count = 0;
   124c9:	8b 45 08             	mov    0x8(%ebp),%eax
   124cc:	c7 40 04 00 00 00 00 	movl   $0x0,0x4(%eax)
    mutex->owner = (task_t *)0;
   124d3:	8b 45 08             	mov    0x8(%ebp),%eax
   124d6:	c7 00 00 00 00 00    	movl   $0x0,(%eax)
    list_init(&mutex->wait_list);
   124dc:	8b 45 08             	mov    0x8(%ebp),%eax
   124df:	83 c0 08             	add    $0x8,%eax
   124e2:	83 ec 0c             	sub    $0xc,%esp
   124e5:	50                   	push   %eax
   124e6:	e8 b9 0a 00 00       	call   12fa4 <list_init>
   124eb:	83 c4 10             	add    $0x10,%esp
}
   124ee:	90                   	nop
   124ef:	c9                   	leave  
   124f0:	c3                   	ret    

000124f1 <mutex_lock>:

/**
 * 申请锁
 */
void mutex_lock (mutex_t * mutex) {
   124f1:	55                   	push   %ebp
   124f2:	89 e5                	mov    %esp,%ebp
   124f4:	83 ec 18             	sub    $0x18,%esp
    irq_state_t  irq_state = irq_enter_protection();
   124f7:	e8 dd fd ff ff       	call   122d9 <irq_enter_protection>
   124fc:	89 45 f4             	mov    %eax,-0xc(%ebp)

    task_t * curr = task_current();
   124ff:	e8 9c ef ff ff       	call   114a0 <task_current>
   12504:	89 45 f0             	mov    %eax,-0x10(%ebp)
    if (mutex->locked_count == 0) {
   12507:	8b 45 08             	mov    0x8(%ebp),%eax
   1250a:	8b 40 04             	mov    0x4(%eax),%eax
   1250d:	85 c0                	test   %eax,%eax
   1250f:	75 14                	jne    12525 <mutex_lock+0x34>
        // 没有任务占用，占用之
        mutex->locked_count = 1;
   12511:	8b 45 08             	mov    0x8(%ebp),%eax
   12514:	c7 40 04 01 00 00 00 	movl   $0x1,0x4(%eax)
        mutex->owner = curr;
   1251b:	8b 45 08             	mov    0x8(%ebp),%eax
   1251e:	8b 55 f0             	mov    -0x10(%ebp),%edx
   12521:	89 10                	mov    %edx,(%eax)
   12523:	eb 52                	jmp    12577 <mutex_lock+0x86>
    } else if (mutex->owner == curr) {
   12525:	8b 45 08             	mov    0x8(%ebp),%eax
   12528:	8b 00                	mov    (%eax),%eax
   1252a:	39 45 f0             	cmp    %eax,-0x10(%ebp)
   1252d:	75 11                	jne    12540 <mutex_lock+0x4f>
        // 已经为当前任务所有，只增加计数
        mutex->locked_count++;
   1252f:	8b 45 08             	mov    0x8(%ebp),%eax
   12532:	8b 40 04             	mov    0x4(%eax),%eax
   12535:	8d 50 01             	lea    0x1(%eax),%edx
   12538:	8b 45 08             	mov    0x8(%ebp),%eax
   1253b:	89 50 04             	mov    %edx,0x4(%eax)
   1253e:	eb 37                	jmp    12577 <mutex_lock+0x86>
    } else {
        // 有其它任务占用，则进入队列等待
        task_t * curr = task_current();
   12540:	e8 5b ef ff ff       	call   114a0 <task_current>
   12545:	89 45 ec             	mov    %eax,-0x14(%ebp)
        task_set_block(curr);
   12548:	83 ec 0c             	sub    $0xc,%esp
   1254b:	ff 75 ec             	pushl  -0x14(%ebp)
   1254e:	e8 22 ef ff ff       	call   11475 <task_set_block>
   12553:	83 c4 10             	add    $0x10,%esp
        list_insert_last(&mutex->wait_list, &curr->wait_node);
   12556:	8b 45 ec             	mov    -0x14(%ebp),%eax
   12559:	8d 90 b8 00 00 00    	lea    0xb8(%eax),%edx
   1255f:	8b 45 08             	mov    0x8(%ebp),%eax
   12562:	83 c0 08             	add    $0x8,%eax
   12565:	83 ec 08             	sub    $0x8,%esp
   12568:	52                   	push   %edx
   12569:	50                   	push   %eax
   1256a:	e8 b9 0a 00 00       	call   13028 <list_insert_last>
   1256f:	83 c4 10             	add    $0x10,%esp
        task_dispatch();
   12572:	e8 33 ef ff ff       	call   114aa <task_dispatch>
    }

    irq_leave_protection(irq_state);
   12577:	83 ec 0c             	sub    $0xc,%esp
   1257a:	ff 75 f4             	pushl  -0xc(%ebp)
   1257d:	e8 6f fd ff ff       	call   122f1 <irq_leave_protection>
   12582:	83 c4 10             	add    $0x10,%esp
}
   12585:	90                   	nop
   12586:	c9                   	leave  
   12587:	c3                   	ret    

00012588 <mutex_unlock>:

/**
 * 释放锁
 */
void mutex_unlock (mutex_t * mutex) {
   12588:	55                   	push   %ebp
   12589:	89 e5                	mov    %esp,%ebp
   1258b:	83 ec 18             	sub    $0x18,%esp
    irq_state_t  irq_state = irq_enter_protection();
   1258e:	e8 46 fd ff ff       	call   122d9 <irq_enter_protection>
   12593:	89 45 f4             	mov    %eax,-0xc(%ebp)

    // 只有锁的拥有者才能释放锁
    task_t * curr = task_current();
   12596:	e8 05 ef ff ff       	call   114a0 <task_current>
   1259b:	89 45 f0             	mov    %eax,-0x10(%ebp)
    if (mutex->owner == curr) {
   1259e:	8b 45 08             	mov    0x8(%ebp),%eax
   125a1:	8b 00                	mov    (%eax),%eax
   125a3:	39 45 f0             	cmp    %eax,-0x10(%ebp)
   125a6:	0f 85 8a 00 00 00    	jne    12636 <mutex_unlock+0xae>
        if (--mutex->locked_count == 0) {
   125ac:	8b 45 08             	mov    0x8(%ebp),%eax
   125af:	8b 40 04             	mov    0x4(%eax),%eax
   125b2:	8d 50 ff             	lea    -0x1(%eax),%edx
   125b5:	8b 45 08             	mov    0x8(%ebp),%eax
   125b8:	89 50 04             	mov    %edx,0x4(%eax)
   125bb:	8b 45 08             	mov    0x8(%ebp),%eax
   125be:	8b 40 04             	mov    0x4(%eax),%eax
   125c1:	85 c0                	test   %eax,%eax
   125c3:	75 71                	jne    12636 <mutex_unlock+0xae>
            // 减到0，释放锁
            mutex->owner = (task_t *)0;
   125c5:	8b 45 08             	mov    0x8(%ebp),%eax
   125c8:	c7 00 00 00 00 00    	movl   $0x0,(%eax)

            // 如果队列中有任务等待，则立即唤醒并占用锁
            if (list_count(&mutex->wait_list)) {
   125ce:	8b 45 08             	mov    0x8(%ebp),%eax
   125d1:	83 c0 08             	add    $0x8,%eax
   125d4:	83 ec 0c             	sub    $0xc,%esp
   125d7:	50                   	push   %eax
   125d8:	e8 db fe ff ff       	call   124b8 <list_count>
   125dd:	83 c4 10             	add    $0x10,%esp
   125e0:	85 c0                	test   %eax,%eax
   125e2:	74 52                	je     12636 <mutex_unlock+0xae>
                list_node_t * task_node = list_remove_first(&mutex->wait_list);
   125e4:	8b 45 08             	mov    0x8(%ebp),%eax
   125e7:	83 c0 08             	add    $0x8,%eax
   125ea:	83 ec 0c             	sub    $0xc,%esp
   125ed:	50                   	push   %eax
   125ee:	e8 99 0a 00 00       	call   1308c <list_remove_first>
   125f3:	83 c4 10             	add    $0x10,%esp
   125f6:	89 45 ec             	mov    %eax,-0x14(%ebp)
                task_t * task = list_node_parent(task_node, task_t, wait_node);
   125f9:	83 7d ec 00          	cmpl   $0x0,-0x14(%ebp)
   125fd:	74 0a                	je     12609 <mutex_unlock+0x81>
   125ff:	8b 45 ec             	mov    -0x14(%ebp),%eax
   12602:	2d b8 00 00 00       	sub    $0xb8,%eax
   12607:	eb 05                	jmp    1260e <mutex_unlock+0x86>
   12609:	b8 00 00 00 00       	mov    $0x0,%eax
   1260e:	89 45 e8             	mov    %eax,-0x18(%ebp)
                task_set_ready(task);
   12611:	83 ec 0c             	sub    $0xc,%esp
   12614:	ff 75 e8             	pushl  -0x18(%ebp)
   12617:	e8 25 ee ff ff       	call   11441 <task_set_ready>
   1261c:	83 c4 10             	add    $0x10,%esp

                // 在这里占用，而不是在任务醒后占用，因为可能抢不到
                mutex->locked_count = 1;
   1261f:	8b 45 08             	mov    0x8(%ebp),%eax
   12622:	c7 40 04 01 00 00 00 	movl   $0x1,0x4(%eax)
                mutex->owner = task;
   12629:	8b 45 08             	mov    0x8(%ebp),%eax
   1262c:	8b 55 e8             	mov    -0x18(%ebp),%edx
   1262f:	89 10                	mov    %edx,(%eax)

                task_dispatch();
   12631:	e8 74 ee ff ff       	call   114aa <task_dispatch>
            }
        }
    }

    irq_leave_protection(irq_state);
   12636:	83 ec 0c             	sub    $0xc,%esp
   12639:	ff 75 f4             	pushl  -0xc(%ebp)
   1263c:	e8 b0 fc ff ff       	call   122f1 <irq_leave_protection>
   12641:	83 c4 10             	add    $0x10,%esp
}
   12644:	90                   	nop
   12645:	c9                   	leave  
   12646:	c3                   	ret    

00012647 <list_count>:
static inline int list_count(list_t *list) {
   12647:	55                   	push   %ebp
   12648:	89 e5                	mov    %esp,%ebp
    return list->count;
   1264a:	8b 45 08             	mov    0x8(%ebp),%eax
   1264d:	8b 40 08             	mov    0x8(%eax),%eax
}
   12650:	5d                   	pop    %ebp
   12651:	c3                   	ret    

00012652 <sem_init>:
#include "ipc/sem.h"

/**
 * 信号量初始化
 */
void sem_init (sem_t * sem, int init_count) {
   12652:	55                   	push   %ebp
   12653:	89 e5                	mov    %esp,%ebp
   12655:	83 ec 08             	sub    $0x8,%esp
    sem->count = init_count;
   12658:	8b 45 08             	mov    0x8(%ebp),%eax
   1265b:	8b 55 0c             	mov    0xc(%ebp),%edx
   1265e:	89 10                	mov    %edx,(%eax)
    list_init(&sem->wait_list);
   12660:	8b 45 08             	mov    0x8(%ebp),%eax
   12663:	83 c0 04             	add    $0x4,%eax
   12666:	83 ec 0c             	sub    $0xc,%esp
   12669:	50                   	push   %eax
   1266a:	e8 35 09 00 00       	call   12fa4 <list_init>
   1266f:	83 c4 10             	add    $0x10,%esp
}
   12672:	90                   	nop
   12673:	c9                   	leave  
   12674:	c3                   	ret    

00012675 <sem_wait>:

/**
 * 申请信号量
 */
void sem_wait (sem_t * sem) {
   12675:	55                   	push   %ebp
   12676:	89 e5                	mov    %esp,%ebp
   12678:	83 ec 18             	sub    $0x18,%esp
    irq_state_t  irq_state = irq_enter_protection();
   1267b:	e8 59 fc ff ff       	call   122d9 <irq_enter_protection>
   12680:	89 45 f4             	mov    %eax,-0xc(%ebp)

    if (sem->count > 0) {
   12683:	8b 45 08             	mov    0x8(%ebp),%eax
   12686:	8b 00                	mov    (%eax),%eax
   12688:	85 c0                	test   %eax,%eax
   1268a:	7e 0f                	jle    1269b <sem_wait+0x26>
        sem->count--;
   1268c:	8b 45 08             	mov    0x8(%ebp),%eax
   1268f:	8b 00                	mov    (%eax),%eax
   12691:	8d 50 ff             	lea    -0x1(%eax),%edx
   12694:	8b 45 08             	mov    0x8(%ebp),%eax
   12697:	89 10                	mov    %edx,(%eax)
   12699:	eb 37                	jmp    126d2 <sem_wait+0x5d>
    } else {
        // 从就绪队列中移除，然后加入信号量的等待队列
        task_t * curr = task_current();
   1269b:	e8 00 ee ff ff       	call   114a0 <task_current>
   126a0:	89 45 f0             	mov    %eax,-0x10(%ebp)
        task_set_block(curr);
   126a3:	83 ec 0c             	sub    $0xc,%esp
   126a6:	ff 75 f0             	pushl  -0x10(%ebp)
   126a9:	e8 c7 ed ff ff       	call   11475 <task_set_block>
   126ae:	83 c4 10             	add    $0x10,%esp
        list_insert_last(&sem->wait_list, &curr->wait_node);
   126b1:	8b 45 f0             	mov    -0x10(%ebp),%eax
   126b4:	8d 90 b8 00 00 00    	lea    0xb8(%eax),%edx
   126ba:	8b 45 08             	mov    0x8(%ebp),%eax
   126bd:	83 c0 04             	add    $0x4,%eax
   126c0:	83 ec 08             	sub    $0x8,%esp
   126c3:	52                   	push   %edx
   126c4:	50                   	push   %eax
   126c5:	e8 5e 09 00 00       	call   13028 <list_insert_last>
   126ca:	83 c4 10             	add    $0x10,%esp
        task_dispatch();
   126cd:	e8 d8 ed ff ff       	call   114aa <task_dispatch>
    }

    irq_leave_protection(irq_state);
   126d2:	83 ec 0c             	sub    $0xc,%esp
   126d5:	ff 75 f4             	pushl  -0xc(%ebp)
   126d8:	e8 14 fc ff ff       	call   122f1 <irq_leave_protection>
   126dd:	83 c4 10             	add    $0x10,%esp
}
   126e0:	90                   	nop
   126e1:	c9                   	leave  
   126e2:	c3                   	ret    

000126e3 <sem_notify>:

/**
 * 释放信号量
 */
void sem_notify (sem_t * sem) {
   126e3:	55                   	push   %ebp
   126e4:	89 e5                	mov    %esp,%ebp
   126e6:	83 ec 18             	sub    $0x18,%esp
    irq_state_t  irq_state = irq_enter_protection();
   126e9:	e8 eb fb ff ff       	call   122d9 <irq_enter_protection>
   126ee:	89 45 f4             	mov    %eax,-0xc(%ebp)

    if (list_count(&sem->wait_list)) {
   126f1:	8b 45 08             	mov    0x8(%ebp),%eax
   126f4:	83 c0 04             	add    $0x4,%eax
   126f7:	83 ec 0c             	sub    $0xc,%esp
   126fa:	50                   	push   %eax
   126fb:	e8 47 ff ff ff       	call   12647 <list_count>
   12700:	83 c4 10             	add    $0x10,%esp
   12703:	85 c0                	test   %eax,%eax
   12705:	74 42                	je     12749 <sem_notify+0x66>
        // 有进程等待，则唤醒加入就绪队列
        list_node_t * node = list_remove_first(&sem->wait_list);
   12707:	8b 45 08             	mov    0x8(%ebp),%eax
   1270a:	83 c0 04             	add    $0x4,%eax
   1270d:	83 ec 0c             	sub    $0xc,%esp
   12710:	50                   	push   %eax
   12711:	e8 76 09 00 00       	call   1308c <list_remove_first>
   12716:	83 c4 10             	add    $0x10,%esp
   12719:	89 45 f0             	mov    %eax,-0x10(%ebp)
        task_t * task = list_node_parent(node, task_t, wait_node);
   1271c:	83 7d f0 00          	cmpl   $0x0,-0x10(%ebp)
   12720:	74 0a                	je     1272c <sem_notify+0x49>
   12722:	8b 45 f0             	mov    -0x10(%ebp),%eax
   12725:	2d b8 00 00 00       	sub    $0xb8,%eax
   1272a:	eb 05                	jmp    12731 <sem_notify+0x4e>
   1272c:	b8 00 00 00 00       	mov    $0x0,%eax
   12731:	89 45 ec             	mov    %eax,-0x14(%ebp)
        task_set_ready(task);
   12734:	83 ec 0c             	sub    $0xc,%esp
   12737:	ff 75 ec             	pushl  -0x14(%ebp)
   1273a:	e8 02 ed ff ff       	call   11441 <task_set_ready>
   1273f:	83 c4 10             	add    $0x10,%esp

        task_dispatch();
   12742:	e8 63 ed ff ff       	call   114aa <task_dispatch>
   12747:	eb 0d                	jmp    12756 <sem_notify+0x73>
    } else {
        sem->count++;
   12749:	8b 45 08             	mov    0x8(%ebp),%eax
   1274c:	8b 00                	mov    (%eax),%eax
   1274e:	8d 50 01             	lea    0x1(%eax),%edx
   12751:	8b 45 08             	mov    0x8(%ebp),%eax
   12754:	89 10                	mov    %edx,(%eax)
    }

    irq_leave_protection(irq_state);
   12756:	83 ec 0c             	sub    $0xc,%esp
   12759:	ff 75 f4             	pushl  -0xc(%ebp)
   1275c:	e8 90 fb ff ff       	call   122f1 <irq_leave_protection>
   12761:	83 c4 10             	add    $0x10,%esp
}
   12764:	90                   	nop
   12765:	c9                   	leave  
   12766:	c3                   	ret    

00012767 <sem_count>:

/**
 * 获取信号量的当前值
 */
int sem_count (sem_t * sem) {
   12767:	55                   	push   %ebp
   12768:	89 e5                	mov    %esp,%ebp
   1276a:	83 ec 18             	sub    $0x18,%esp
    irq_state_t  irq_state = irq_enter_protection();
   1276d:	e8 67 fb ff ff       	call   122d9 <irq_enter_protection>
   12772:	89 45 f4             	mov    %eax,-0xc(%ebp)
    int count = sem->count;
   12775:	8b 45 08             	mov    0x8(%ebp),%eax
   12778:	8b 00                	mov    (%eax),%eax
   1277a:	89 45 f0             	mov    %eax,-0x10(%ebp)
    irq_leave_protection(irq_state);
   1277d:	83 ec 0c             	sub    $0xc,%esp
   12780:	ff 75 f4             	pushl  -0xc(%ebp)
   12783:	e8 69 fb ff ff       	call   122f1 <irq_leave_protection>
   12788:	83 c4 10             	add    $0x10,%esp
    return count;
   1278b:	8b 45 f0             	mov    -0x10(%ebp),%eax
}
   1278e:	c9                   	leave  
   1278f:	c3                   	ret    

00012790 <bitmap_byte_count>:
#include "tools/klib.h"

/**
 * @brief 获取所需要的字节数量
 */
int bitmap_byte_count (int bit_count) {
   12790:	55                   	push   %ebp
   12791:	89 e5                	mov    %esp,%ebp
    return (bit_count + 8 - 1) / 8;         // 向上取整
   12793:	8b 45 08             	mov    0x8(%ebp),%eax
   12796:	83 c0 07             	add    $0x7,%eax
   12799:	8d 50 07             	lea    0x7(%eax),%edx
   1279c:	85 c0                	test   %eax,%eax
   1279e:	0f 48 c2             	cmovs  %edx,%eax
   127a1:	c1 f8 03             	sar    $0x3,%eax
}
   127a4:	5d                   	pop    %ebp
   127a5:	c3                   	ret    

000127a6 <bitmap_init>:

/**
 * @brief 位图初始化
 */
void bitmap_init (bitmap_t * bitmap, uint8_t * bits, int count, int init_bit) {
   127a6:	55                   	push   %ebp
   127a7:	89 e5                	mov    %esp,%ebp
   127a9:	83 ec 18             	sub    $0x18,%esp
    bitmap->bit_count = count;
   127ac:	8b 45 08             	mov    0x8(%ebp),%eax
   127af:	8b 55 10             	mov    0x10(%ebp),%edx
   127b2:	89 10                	mov    %edx,(%eax)
    bitmap->bits = bits;
   127b4:	8b 45 08             	mov    0x8(%ebp),%eax
   127b7:	8b 55 0c             	mov    0xc(%ebp),%edx
   127ba:	89 50 04             	mov    %edx,0x4(%eax)

    int bytes = bitmap_byte_count(bitmap->bit_count);
   127bd:	8b 45 08             	mov    0x8(%ebp),%eax
   127c0:	8b 00                	mov    (%eax),%eax
   127c2:	50                   	push   %eax
   127c3:	e8 c8 ff ff ff       	call   12790 <bitmap_byte_count>
   127c8:	83 c4 04             	add    $0x4,%esp
   127cb:	89 45 f4             	mov    %eax,-0xc(%ebp)
    kernel_memset(bitmap->bits, init_bit ? 0xFF: 0, bytes);
   127ce:	83 7d 14 00          	cmpl   $0x0,0x14(%ebp)
   127d2:	74 07                	je     127db <bitmap_init+0x35>
   127d4:	ba ff 00 00 00       	mov    $0xff,%edx
   127d9:	eb 05                	jmp    127e0 <bitmap_init+0x3a>
   127db:	ba 00 00 00 00       	mov    $0x0,%edx
   127e0:	8b 45 08             	mov    0x8(%ebp),%eax
   127e3:	8b 40 04             	mov    0x4(%eax),%eax
   127e6:	83 ec 04             	sub    $0x4,%esp
   127e9:	ff 75 f4             	pushl  -0xc(%ebp)
   127ec:	52                   	push   %edx
   127ed:	50                   	push   %eax
   127ee:	e8 1b 04 00 00       	call   12c0e <kernel_memset>
   127f3:	83 c4 10             	add    $0x10,%esp
}
   127f6:	90                   	nop
   127f7:	c9                   	leave  
   127f8:	c3                   	ret    

000127f9 <bitmap_set_bit>:

/**
 * @brief 连续设置N个位
 */
void bitmap_set_bit (bitmap_t * bitmap, int index, int count, int bit) {
   127f9:	55                   	push   %ebp
   127fa:	89 e5                	mov    %esp,%ebp
   127fc:	56                   	push   %esi
   127fd:	53                   	push   %ebx
   127fe:	83 ec 10             	sub    $0x10,%esp
    for (int i = 0; (i < count) && (index < bitmap->bit_count); i++, index++) {
   12801:	c7 45 f4 00 00 00 00 	movl   $0x0,-0xc(%ebp)
   12808:	e9 a2 00 00 00       	jmp    128af <bitmap_set_bit+0xb6>
        // 可以考虑进行一定程序的优化!!
        if (bit) {
   1280d:	83 7d 14 00          	cmpl   $0x0,0x14(%ebp)
   12811:	74 4a                	je     1285d <bitmap_set_bit+0x64>
            bitmap->bits[index / 8] |= 1 << (index % 8);
   12813:	8b 45 08             	mov    0x8(%ebp),%eax
   12816:	8b 50 04             	mov    0x4(%eax),%edx
   12819:	8b 45 0c             	mov    0xc(%ebp),%eax
   1281c:	8d 48 07             	lea    0x7(%eax),%ecx
   1281f:	85 c0                	test   %eax,%eax
   12821:	0f 48 c1             	cmovs  %ecx,%eax
   12824:	c1 f8 03             	sar    $0x3,%eax
   12827:	89 c3                	mov    %eax,%ebx
   12829:	89 d8                	mov    %ebx,%eax
   1282b:	01 d0                	add    %edx,%eax
   1282d:	0f b6 00             	movzbl (%eax),%eax
   12830:	89 c6                	mov    %eax,%esi
   12832:	8b 45 0c             	mov    0xc(%ebp),%eax
   12835:	99                   	cltd   
   12836:	c1 ea 1d             	shr    $0x1d,%edx
   12839:	01 d0                	add    %edx,%eax
   1283b:	83 e0 07             	and    $0x7,%eax
   1283e:	29 d0                	sub    %edx,%eax
   12840:	ba 01 00 00 00       	mov    $0x1,%edx
   12845:	89 c1                	mov    %eax,%ecx
   12847:	d3 e2                	shl    %cl,%edx
   12849:	89 d0                	mov    %edx,%eax
   1284b:	89 f2                	mov    %esi,%edx
   1284d:	09 c2                	or     %eax,%edx
   1284f:	8b 45 08             	mov    0x8(%ebp),%eax
   12852:	8b 40 04             	mov    0x4(%eax),%eax
   12855:	89 d9                	mov    %ebx,%ecx
   12857:	01 c8                	add    %ecx,%eax
   12859:	88 10                	mov    %dl,(%eax)
   1285b:	eb 4a                	jmp    128a7 <bitmap_set_bit+0xae>
        } else {
            bitmap->bits[index / 8] &= ~(1 << (index % 8));
   1285d:	8b 45 08             	mov    0x8(%ebp),%eax
   12860:	8b 50 04             	mov    0x4(%eax),%edx
   12863:	8b 45 0c             	mov    0xc(%ebp),%eax
   12866:	8d 48 07             	lea    0x7(%eax),%ecx
   12869:	85 c0                	test   %eax,%eax
   1286b:	0f 48 c1             	cmovs  %ecx,%eax
   1286e:	c1 f8 03             	sar    $0x3,%eax
   12871:	89 c3                	mov    %eax,%ebx
   12873:	89 d8                	mov    %ebx,%eax
   12875:	01 d0                	add    %edx,%eax
   12877:	0f b6 00             	movzbl (%eax),%eax
   1287a:	89 c6                	mov    %eax,%esi
   1287c:	8b 45 0c             	mov    0xc(%ebp),%eax
   1287f:	99                   	cltd   
   12880:	c1 ea 1d             	shr    $0x1d,%edx
   12883:	01 d0                	add    %edx,%eax
   12885:	83 e0 07             	and    $0x7,%eax
   12888:	29 d0                	sub    %edx,%eax
   1288a:	ba 01 00 00 00       	mov    $0x1,%edx
   1288f:	89 c1                	mov    %eax,%ecx
   12891:	d3 e2                	shl    %cl,%edx
   12893:	89 d0                	mov    %edx,%eax
   12895:	f7 d0                	not    %eax
   12897:	89 f2                	mov    %esi,%edx
   12899:	21 c2                	and    %eax,%edx
   1289b:	8b 45 08             	mov    0x8(%ebp),%eax
   1289e:	8b 40 04             	mov    0x4(%eax),%eax
   128a1:	89 d9                	mov    %ebx,%ecx
   128a3:	01 c8                	add    %ecx,%eax
   128a5:	88 10                	mov    %dl,(%eax)
    for (int i = 0; (i < count) && (index < bitmap->bit_count); i++, index++) {
   128a7:	83 45 f4 01          	addl   $0x1,-0xc(%ebp)
   128ab:	83 45 0c 01          	addl   $0x1,0xc(%ebp)
   128af:	8b 45 f4             	mov    -0xc(%ebp),%eax
   128b2:	3b 45 10             	cmp    0x10(%ebp),%eax
   128b5:	7d 0e                	jge    128c5 <bitmap_set_bit+0xcc>
   128b7:	8b 45 08             	mov    0x8(%ebp),%eax
   128ba:	8b 00                	mov    (%eax),%eax
   128bc:	39 45 0c             	cmp    %eax,0xc(%ebp)
   128bf:	0f 8c 48 ff ff ff    	jl     1280d <bitmap_set_bit+0x14>
        }
    }
} 
   128c5:	90                   	nop
   128c6:	83 c4 10             	add    $0x10,%esp
   128c9:	5b                   	pop    %ebx
   128ca:	5e                   	pop    %esi
   128cb:	5d                   	pop    %ebp
   128cc:	c3                   	ret    

000128cd <bitmap_get_bit>:

/**
 * @brief 获取指定位的状态
 */
int bitmap_get_bit (bitmap_t * bitmap, int index) {
   128cd:	55                   	push   %ebp
   128ce:	89 e5                	mov    %esp,%ebp
   128d0:	53                   	push   %ebx
    //return bitmap->bits[index / 8] & (1 << (index % 8));
    // 2023-3-9 这里应该返回0或者1
    return (bitmap->bits[index / 8] & (1 << (index % 8))) ? 1 : 0;
   128d1:	8b 45 08             	mov    0x8(%ebp),%eax
   128d4:	8b 50 04             	mov    0x4(%eax),%edx
   128d7:	8b 45 0c             	mov    0xc(%ebp),%eax
   128da:	8d 48 07             	lea    0x7(%eax),%ecx
   128dd:	85 c0                	test   %eax,%eax
   128df:	0f 48 c1             	cmovs  %ecx,%eax
   128e2:	c1 f8 03             	sar    $0x3,%eax
   128e5:	01 d0                	add    %edx,%eax
   128e7:	0f b6 00             	movzbl (%eax),%eax
   128ea:	0f b6 d8             	movzbl %al,%ebx
   128ed:	8b 45 0c             	mov    0xc(%ebp),%eax
   128f0:	99                   	cltd   
   128f1:	c1 ea 1d             	shr    $0x1d,%edx
   128f4:	01 d0                	add    %edx,%eax
   128f6:	83 e0 07             	and    $0x7,%eax
   128f9:	29 d0                	sub    %edx,%eax
   128fb:	89 c1                	mov    %eax,%ecx
   128fd:	d3 fb                	sar    %cl,%ebx
   128ff:	89 d8                	mov    %ebx,%eax
   12901:	83 e0 01             	and    $0x1,%eax
}
   12904:	5b                   	pop    %ebx
   12905:	5d                   	pop    %ebp
   12906:	c3                   	ret    

00012907 <bitmap_is_set>:

/**
 * @brief 检查指定位是否置1
 */
int bitmap_is_set (bitmap_t * bitmap, int index) {
   12907:	55                   	push   %ebp
   12908:	89 e5                	mov    %esp,%ebp
    return bitmap_get_bit(bitmap, index) ? 1 : 0;
   1290a:	ff 75 0c             	pushl  0xc(%ebp)
   1290d:	ff 75 08             	pushl  0x8(%ebp)
   12910:	e8 b8 ff ff ff       	call   128cd <bitmap_get_bit>
   12915:	83 c4 08             	add    $0x8,%esp
   12918:	85 c0                	test   %eax,%eax
   1291a:	0f 95 c0             	setne  %al
   1291d:	0f b6 c0             	movzbl %al,%eax
}
   12920:	c9                   	leave  
   12921:	c3                   	ret    

00012922 <bitmap_alloc_nbits>:

/**
 * @brief 连续分配若干指定比特位，返回起始索引
 */
int bitmap_alloc_nbits (bitmap_t * bitmap, int bit, int count) {
   12922:	55                   	push   %ebp
   12923:	89 e5                	mov    %esp,%ebp
   12925:	83 ec 10             	sub    $0x10,%esp
    int search_idx = 0;
   12928:	c7 45 fc 00 00 00 00 	movl   $0x0,-0x4(%ebp)
    int ok_idx = -1;
   1292f:	c7 45 f8 ff ff ff ff 	movl   $0xffffffff,-0x8(%ebp)

    while (search_idx < bitmap->bit_count) {
   12936:	e9 85 00 00 00       	jmp    129c0 <bitmap_alloc_nbits+0x9e>
        // 定位到第一个相同的索引处
        if (bitmap_get_bit(bitmap, search_idx) != bit) {
   1293b:	ff 75 fc             	pushl  -0x4(%ebp)
   1293e:	ff 75 08             	pushl  0x8(%ebp)
   12941:	e8 87 ff ff ff       	call   128cd <bitmap_get_bit>
   12946:	83 c4 08             	add    $0x8,%esp
   12949:	39 45 0c             	cmp    %eax,0xc(%ebp)
   1294c:	74 06                	je     12954 <bitmap_alloc_nbits+0x32>
            // 不同，继续寻找起始的bit
            search_idx++;
   1294e:	83 45 fc 01          	addl   $0x1,-0x4(%ebp)
            continue;
   12952:	eb 6c                	jmp    129c0 <bitmap_alloc_nbits+0x9e>
        }

        // 记录起始索引
        ok_idx = search_idx;
   12954:	8b 45 fc             	mov    -0x4(%ebp),%eax
   12957:	89 45 f8             	mov    %eax,-0x8(%ebp)

        // 继续计算下一部分
        int i;
        for (i = 1; (i < count) && (search_idx < bitmap->bit_count); i++) {
   1295a:	c7 45 f4 01 00 00 00 	movl   $0x1,-0xc(%ebp)
   12961:	eb 27                	jmp    1298a <bitmap_alloc_nbits+0x68>
            if (bitmap_get_bit(bitmap, search_idx++) != bit) {
   12963:	8b 45 fc             	mov    -0x4(%ebp),%eax
   12966:	8d 50 01             	lea    0x1(%eax),%edx
   12969:	89 55 fc             	mov    %edx,-0x4(%ebp)
   1296c:	50                   	push   %eax
   1296d:	ff 75 08             	pushl  0x8(%ebp)
   12970:	e8 58 ff ff ff       	call   128cd <bitmap_get_bit>
   12975:	83 c4 08             	add    $0x8,%esp
   12978:	39 45 0c             	cmp    %eax,0xc(%ebp)
   1297b:	74 09                	je     12986 <bitmap_alloc_nbits+0x64>
                // 不足count个，退出，重新进行最外层的比较
                ok_idx = -1;
   1297d:	c7 45 f8 ff ff ff ff 	movl   $0xffffffff,-0x8(%ebp)
                break;
   12984:	eb 16                	jmp    1299c <bitmap_alloc_nbits+0x7a>
        for (i = 1; (i < count) && (search_idx < bitmap->bit_count); i++) {
